
streamcluster:     file format elf64-x86-64


Disassembly of section .init:

0000000000002000 <_init>:
    2000:	f3 0f 1e fa          	endbr64 
    2004:	48 83 ec 08          	sub    $0x8,%rsp
    2008:	48 8b 05 d9 cf 00 00 	mov    0xcfd9(%rip),%rax        # efe8 <__gmon_start__>
    200f:	48 85 c0             	test   %rax,%rax
    2012:	74 02                	je     2016 <_init+0x16>
    2014:	ff d0                	callq  *%rax
    2016:	48 83 c4 08          	add    $0x8,%rsp
    201a:	c3                   	retq   

Disassembly of section .plt:

0000000000002020 <.plt>:
    2020:	ff 35 52 ce 00 00    	pushq  0xce52(%rip)        # ee78 <_GLOBAL_OFFSET_TABLE_+0x8>
    2026:	f2 ff 25 53 ce 00 00 	bnd jmpq *0xce53(%rip)        # ee80 <_GLOBAL_OFFSET_TABLE_+0x10>
    202d:	0f 1f 00             	nopl   (%rax)
    2030:	f3 0f 1e fa          	endbr64 
    2034:	68 00 00 00 00       	pushq  $0x0
    2039:	f2 e9 e1 ff ff ff    	bnd jmpq 2020 <.plt>
    203f:	90                   	nop
    2040:	f3 0f 1e fa          	endbr64 
    2044:	68 01 00 00 00       	pushq  $0x1
    2049:	f2 e9 d1 ff ff ff    	bnd jmpq 2020 <.plt>
    204f:	90                   	nop
    2050:	f3 0f 1e fa          	endbr64 
    2054:	68 02 00 00 00       	pushq  $0x2
    2059:	f2 e9 c1 ff ff ff    	bnd jmpq 2020 <.plt>
    205f:	90                   	nop
    2060:	f3 0f 1e fa          	endbr64 
    2064:	68 03 00 00 00       	pushq  $0x3
    2069:	f2 e9 b1 ff ff ff    	bnd jmpq 2020 <.plt>
    206f:	90                   	nop
    2070:	f3 0f 1e fa          	endbr64 
    2074:	68 04 00 00 00       	pushq  $0x4
    2079:	f2 e9 a1 ff ff ff    	bnd jmpq 2020 <.plt>
    207f:	90                   	nop
    2080:	f3 0f 1e fa          	endbr64 
    2084:	68 05 00 00 00       	pushq  $0x5
    2089:	f2 e9 91 ff ff ff    	bnd jmpq 2020 <.plt>
    208f:	90                   	nop
    2090:	f3 0f 1e fa          	endbr64 
    2094:	68 06 00 00 00       	pushq  $0x6
    2099:	f2 e9 81 ff ff ff    	bnd jmpq 2020 <.plt>
    209f:	90                   	nop
    20a0:	f3 0f 1e fa          	endbr64 
    20a4:	68 07 00 00 00       	pushq  $0x7
    20a9:	f2 e9 71 ff ff ff    	bnd jmpq 2020 <.plt>
    20af:	90                   	nop
    20b0:	f3 0f 1e fa          	endbr64 
    20b4:	68 08 00 00 00       	pushq  $0x8
    20b9:	f2 e9 61 ff ff ff    	bnd jmpq 2020 <.plt>
    20bf:	90                   	nop
    20c0:	f3 0f 1e fa          	endbr64 
    20c4:	68 09 00 00 00       	pushq  $0x9
    20c9:	f2 e9 51 ff ff ff    	bnd jmpq 2020 <.plt>
    20cf:	90                   	nop
    20d0:	f3 0f 1e fa          	endbr64 
    20d4:	68 0a 00 00 00       	pushq  $0xa
    20d9:	f2 e9 41 ff ff ff    	bnd jmpq 2020 <.plt>
    20df:	90                   	nop
    20e0:	f3 0f 1e fa          	endbr64 
    20e4:	68 0b 00 00 00       	pushq  $0xb
    20e9:	f2 e9 31 ff ff ff    	bnd jmpq 2020 <.plt>
    20ef:	90                   	nop
    20f0:	f3 0f 1e fa          	endbr64 
    20f4:	68 0c 00 00 00       	pushq  $0xc
    20f9:	f2 e9 21 ff ff ff    	bnd jmpq 2020 <.plt>
    20ff:	90                   	nop
    2100:	f3 0f 1e fa          	endbr64 
    2104:	68 0d 00 00 00       	pushq  $0xd
    2109:	f2 e9 11 ff ff ff    	bnd jmpq 2020 <.plt>
    210f:	90                   	nop
    2110:	f3 0f 1e fa          	endbr64 
    2114:	68 0e 00 00 00       	pushq  $0xe
    2119:	f2 e9 01 ff ff ff    	bnd jmpq 2020 <.plt>
    211f:	90                   	nop
    2120:	f3 0f 1e fa          	endbr64 
    2124:	68 0f 00 00 00       	pushq  $0xf
    2129:	f2 e9 f1 fe ff ff    	bnd jmpq 2020 <.plt>
    212f:	90                   	nop
    2130:	f3 0f 1e fa          	endbr64 
    2134:	68 10 00 00 00       	pushq  $0x10
    2139:	f2 e9 e1 fe ff ff    	bnd jmpq 2020 <.plt>
    213f:	90                   	nop
    2140:	f3 0f 1e fa          	endbr64 
    2144:	68 11 00 00 00       	pushq  $0x11
    2149:	f2 e9 d1 fe ff ff    	bnd jmpq 2020 <.plt>
    214f:	90                   	nop
    2150:	f3 0f 1e fa          	endbr64 
    2154:	68 12 00 00 00       	pushq  $0x12
    2159:	f2 e9 c1 fe ff ff    	bnd jmpq 2020 <.plt>
    215f:	90                   	nop
    2160:	f3 0f 1e fa          	endbr64 
    2164:	68 13 00 00 00       	pushq  $0x13
    2169:	f2 e9 b1 fe ff ff    	bnd jmpq 2020 <.plt>
    216f:	90                   	nop
    2170:	f3 0f 1e fa          	endbr64 
    2174:	68 14 00 00 00       	pushq  $0x14
    2179:	f2 e9 a1 fe ff ff    	bnd jmpq 2020 <.plt>
    217f:	90                   	nop
    2180:	f3 0f 1e fa          	endbr64 
    2184:	68 15 00 00 00       	pushq  $0x15
    2189:	f2 e9 91 fe ff ff    	bnd jmpq 2020 <.plt>
    218f:	90                   	nop
    2190:	f3 0f 1e fa          	endbr64 
    2194:	68 16 00 00 00       	pushq  $0x16
    2199:	f2 e9 81 fe ff ff    	bnd jmpq 2020 <.plt>
    219f:	90                   	nop
    21a0:	f3 0f 1e fa          	endbr64 
    21a4:	68 17 00 00 00       	pushq  $0x17
    21a9:	f2 e9 71 fe ff ff    	bnd jmpq 2020 <.plt>
    21af:	90                   	nop
    21b0:	f3 0f 1e fa          	endbr64 
    21b4:	68 18 00 00 00       	pushq  $0x18
    21b9:	f2 e9 61 fe ff ff    	bnd jmpq 2020 <.plt>
    21bf:	90                   	nop
    21c0:	f3 0f 1e fa          	endbr64 
    21c4:	68 19 00 00 00       	pushq  $0x19
    21c9:	f2 e9 51 fe ff ff    	bnd jmpq 2020 <.plt>
    21cf:	90                   	nop
    21d0:	f3 0f 1e fa          	endbr64 
    21d4:	68 1a 00 00 00       	pushq  $0x1a
    21d9:	f2 e9 41 fe ff ff    	bnd jmpq 2020 <.plt>
    21df:	90                   	nop
    21e0:	f3 0f 1e fa          	endbr64 
    21e4:	68 1b 00 00 00       	pushq  $0x1b
    21e9:	f2 e9 31 fe ff ff    	bnd jmpq 2020 <.plt>
    21ef:	90                   	nop
    21f0:	f3 0f 1e fa          	endbr64 
    21f4:	68 1c 00 00 00       	pushq  $0x1c
    21f9:	f2 e9 21 fe ff ff    	bnd jmpq 2020 <.plt>
    21ff:	90                   	nop
    2200:	f3 0f 1e fa          	endbr64 
    2204:	68 1d 00 00 00       	pushq  $0x1d
    2209:	f2 e9 11 fe ff ff    	bnd jmpq 2020 <.plt>
    220f:	90                   	nop
    2210:	f3 0f 1e fa          	endbr64 
    2214:	68 1e 00 00 00       	pushq  $0x1e
    2219:	f2 e9 01 fe ff ff    	bnd jmpq 2020 <.plt>
    221f:	90                   	nop
    2220:	f3 0f 1e fa          	endbr64 
    2224:	68 1f 00 00 00       	pushq  $0x1f
    2229:	f2 e9 f1 fd ff ff    	bnd jmpq 2020 <.plt>
    222f:	90                   	nop
    2230:	f3 0f 1e fa          	endbr64 
    2234:	68 20 00 00 00       	pushq  $0x20
    2239:	f2 e9 e1 fd ff ff    	bnd jmpq 2020 <.plt>
    223f:	90                   	nop
    2240:	f3 0f 1e fa          	endbr64 
    2244:	68 21 00 00 00       	pushq  $0x21
    2249:	f2 e9 d1 fd ff ff    	bnd jmpq 2020 <.plt>
    224f:	90                   	nop
    2250:	f3 0f 1e fa          	endbr64 
    2254:	68 22 00 00 00       	pushq  $0x22
    2259:	f2 e9 c1 fd ff ff    	bnd jmpq 2020 <.plt>
    225f:	90                   	nop
    2260:	f3 0f 1e fa          	endbr64 
    2264:	68 23 00 00 00       	pushq  $0x23
    2269:	f2 e9 b1 fd ff ff    	bnd jmpq 2020 <.plt>
    226f:	90                   	nop
    2270:	f3 0f 1e fa          	endbr64 
    2274:	68 24 00 00 00       	pushq  $0x24
    2279:	f2 e9 a1 fd ff ff    	bnd jmpq 2020 <.plt>
    227f:	90                   	nop
    2280:	f3 0f 1e fa          	endbr64 
    2284:	68 25 00 00 00       	pushq  $0x25
    2289:	f2 e9 91 fd ff ff    	bnd jmpq 2020 <.plt>
    228f:	90                   	nop
    2290:	f3 0f 1e fa          	endbr64 
    2294:	68 26 00 00 00       	pushq  $0x26
    2299:	f2 e9 81 fd ff ff    	bnd jmpq 2020 <.plt>
    229f:	90                   	nop
    22a0:	f3 0f 1e fa          	endbr64 
    22a4:	68 27 00 00 00       	pushq  $0x27
    22a9:	f2 e9 71 fd ff ff    	bnd jmpq 2020 <.plt>
    22af:	90                   	nop
    22b0:	f3 0f 1e fa          	endbr64 
    22b4:	68 28 00 00 00       	pushq  $0x28
    22b9:	f2 e9 61 fd ff ff    	bnd jmpq 2020 <.plt>
    22bf:	90                   	nop

Disassembly of section .plt.got:

00000000000022c0 <__cxa_finalize@plt>:
    22c0:	f3 0f 1e fa          	endbr64 
    22c4:	f2 ff 25 05 cd 00 00 	bnd jmpq *0xcd05(%rip)        # efd0 <__cxa_finalize@GLIBC_2.2.5>
    22cb:	0f 1f 44 00 00       	nopl   0x0(%rax,%rax,1)

Disassembly of section .plt.sec:

00000000000022d0 <__printf_chk@plt>:
    22d0:	f3 0f 1e fa          	endbr64 
    22d4:	f2 ff 25 ad cb 00 00 	bnd jmpq *0xcbad(%rip)        # ee88 <__printf_chk@GLIBC_2.3.4>
    22db:	0f 1f 44 00 00       	nopl   0x0(%rax,%rax,1)

00000000000022e0 <_Znam@plt>:
    22e0:	f3 0f 1e fa          	endbr64 
    22e4:	f2 ff 25 a5 cb 00 00 	bnd jmpq *0xcba5(%rip)        # ee90 <_Znam@GLIBCXX_3.4>
    22eb:	0f 1f 44 00 00       	nopl   0x0(%rax,%rax,1)

00000000000022f0 <pthread_mutex_trylock@plt>:
    22f0:	f3 0f 1e fa          	endbr64 
    22f4:	f2 ff 25 9d cb 00 00 	bnd jmpq *0xcb9d(%rip)        # ee98 <pthread_mutex_trylock@GLIBC_2.2.5>
    22fb:	0f 1f 44 00 00       	nopl   0x0(%rax,%rax,1)

0000000000002300 <pthread_cond_broadcast@plt>:
    2300:	f3 0f 1e fa          	endbr64 
    2304:	f2 ff 25 95 cb 00 00 	bnd jmpq *0xcb95(%rip)        # eea0 <pthread_cond_broadcast@GLIBC_2.3.2>
    230b:	0f 1f 44 00 00       	nopl   0x0(%rax,%rax,1)

0000000000002310 <pthread_join@plt>:
    2310:	f3 0f 1e fa          	endbr64 
    2314:	f2 ff 25 8d cb 00 00 	bnd jmpq *0xcb8d(%rip)        # eea8 <pthread_join@GLIBC_2.2.5>
    231b:	0f 1f 44 00 00       	nopl   0x0(%rax,%rax,1)

0000000000002320 <memset@plt>:
    2320:	f3 0f 1e fa          	endbr64 
    2324:	f2 ff 25 85 cb 00 00 	bnd jmpq *0xcb85(%rip)        # eeb0 <memset@GLIBC_2.2.5>
    232b:	0f 1f 44 00 00       	nopl   0x0(%rax,%rax,1)

0000000000002330 <pthread_create@plt>:
    2330:	f3 0f 1e fa          	endbr64 
    2334:	f2 ff 25 7d cb 00 00 	bnd jmpq *0xcb7d(%rip)        # eeb8 <pthread_create@GLIBC_2.2.5>
    233b:	0f 1f 44 00 00       	nopl   0x0(%rax,%rax,1)

0000000000002340 <__assert_fail@plt>:
    2340:	f3 0f 1e fa          	endbr64 
    2344:	f2 ff 25 75 cb 00 00 	bnd jmpq *0xcb75(%rip)        # eec0 <__assert_fail@GLIBC_2.2.5>
    234b:	0f 1f 44 00 00       	nopl   0x0(%rax,%rax,1)

0000000000002350 <calloc@plt>:
    2350:	f3 0f 1e fa          	endbr64 
    2354:	f2 ff 25 6d cb 00 00 	bnd jmpq *0xcb6d(%rip)        # eec8 <calloc@GLIBC_2.2.5>
    235b:	0f 1f 44 00 00       	nopl   0x0(%rax,%rax,1)

0000000000002360 <pthread_mutex_unlock@plt>:
    2360:	f3 0f 1e fa          	endbr64 
    2364:	f2 ff 25 65 cb 00 00 	bnd jmpq *0xcb65(%rip)        # eed0 <pthread_mutex_unlock@GLIBC_2.2.5>
    236b:	0f 1f 44 00 00       	nopl   0x0(%rax,%rax,1)

0000000000002370 <lrand48@plt>:
    2370:	f3 0f 1e fa          	endbr64 
    2374:	f2 ff 25 5d cb 00 00 	bnd jmpq *0xcb5d(%rip)        # eed8 <lrand48@GLIBC_2.2.5>
    237b:	0f 1f 44 00 00       	nopl   0x0(%rax,%rax,1)

0000000000002380 <log@plt>:
    2380:	f3 0f 1e fa          	endbr64 
    2384:	f2 ff 25 55 cb 00 00 	bnd jmpq *0xcb55(%rip)        # eee0 <log@GLIBC_2.29>
    238b:	0f 1f 44 00 00       	nopl   0x0(%rax,%rax,1)

0000000000002390 <memcpy@plt>:
    2390:	f3 0f 1e fa          	endbr64 
    2394:	f2 ff 25 4d cb 00 00 	bnd jmpq *0xcb4d(%rip)        # eee8 <memcpy@GLIBC_2.14>
    239b:	0f 1f 44 00 00       	nopl   0x0(%rax,%rax,1)

00000000000023a0 <__strcpy_chk@plt>:
    23a0:	f3 0f 1e fa          	endbr64 
    23a4:	f2 ff 25 45 cb 00 00 	bnd jmpq *0xcb45(%rip)        # eef0 <__strcpy_chk@GLIBC_2.3.4>
    23ab:	0f 1f 44 00 00       	nopl   0x0(%rax,%rax,1)

00000000000023b0 <__cxa_atexit@plt>:
    23b0:	f3 0f 1e fa          	endbr64 
    23b4:	f2 ff 25 3d cb 00 00 	bnd jmpq *0xcb3d(%rip)        # eef8 <__cxa_atexit@GLIBC_2.2.5>
    23bb:	0f 1f 44 00 00       	nopl   0x0(%rax,%rax,1)

00000000000023c0 <fclose@plt>:
    23c0:	f3 0f 1e fa          	endbr64 
    23c4:	f2 ff 25 35 cb 00 00 	bnd jmpq *0xcb35(%rip)        # ef00 <fclose@GLIBC_2.2.5>
    23cb:	0f 1f 44 00 00       	nopl   0x0(%rax,%rax,1)

00000000000023d0 <_Znwm@plt>:
    23d0:	f3 0f 1e fa          	endbr64 
    23d4:	f2 ff 25 2d cb 00 00 	bnd jmpq *0xcb2d(%rip)        # ef08 <_Znwm@GLIBCXX_3.4>
    23db:	0f 1f 44 00 00       	nopl   0x0(%rax,%rax,1)

00000000000023e0 <_ZdlPvm@plt>:
    23e0:	f3 0f 1e fa          	endbr64 
    23e4:	f2 ff 25 25 cb 00 00 	bnd jmpq *0xcb25(%rip)        # ef10 <_ZdlPvm@CXXABI_1.3.9>
    23eb:	0f 1f 44 00 00       	nopl   0x0(%rax,%rax,1)

00000000000023f0 <__stack_chk_fail@plt>:
    23f0:	f3 0f 1e fa          	endbr64 
    23f4:	f2 ff 25 1d cb 00 00 	bnd jmpq *0xcb1d(%rip)        # ef18 <__stack_chk_fail@GLIBC_2.4>
    23fb:	0f 1f 44 00 00       	nopl   0x0(%rax,%rax,1)

0000000000002400 <pthread_mutex_destroy@plt>:
    2400:	f3 0f 1e fa          	endbr64 
    2404:	f2 ff 25 15 cb 00 00 	bnd jmpq *0xcb15(%rip)        # ef20 <pthread_mutex_destroy@GLIBC_2.2.5>
    240b:	0f 1f 44 00 00       	nopl   0x0(%rax,%rax,1)

0000000000002410 <fflush@plt>:
    2410:	f3 0f 1e fa          	endbr64 
    2414:	f2 ff 25 0d cb 00 00 	bnd jmpq *0xcb0d(%rip)        # ef28 <fflush@GLIBC_2.2.5>
    241b:	0f 1f 44 00 00       	nopl   0x0(%rax,%rax,1)

0000000000002420 <fopen@plt>:
    2420:	f3 0f 1e fa          	endbr64 
    2424:	f2 ff 25 05 cb 00 00 	bnd jmpq *0xcb05(%rip)        # ef30 <fopen@GLIBC_2.2.5>
    242b:	0f 1f 44 00 00       	nopl   0x0(%rax,%rax,1)

0000000000002430 <free@plt>:
    2430:	f3 0f 1e fa          	endbr64 
    2434:	f2 ff 25 fd ca 00 00 	bnd jmpq *0xcafd(%rip)        # ef38 <free@GLIBC_2.2.5>
    243b:	0f 1f 44 00 00       	nopl   0x0(%rax,%rax,1)

0000000000002440 <pthread_cond_init@plt>:
    2440:	f3 0f 1e fa          	endbr64 
    2444:	f2 ff 25 f5 ca 00 00 	bnd jmpq *0xcaf5(%rip)        # ef40 <pthread_cond_init@GLIBC_2.3.2>
    244b:	0f 1f 44 00 00       	nopl   0x0(%rax,%rax,1)

0000000000002450 <exit@plt>:
    2450:	f3 0f 1e fa          	endbr64 
    2454:	f2 ff 25 ed ca 00 00 	bnd jmpq *0xcaed(%rip)        # ef48 <exit@GLIBC_2.2.5>
    245b:	0f 1f 44 00 00       	nopl   0x0(%rax,%rax,1)

0000000000002460 <fputc@plt>:
    2460:	f3 0f 1e fa          	endbr64 
    2464:	f2 ff 25 e5 ca 00 00 	bnd jmpq *0xcae5(%rip)        # ef50 <fputc@GLIBC_2.2.5>
    246b:	0f 1f 44 00 00       	nopl   0x0(%rax,%rax,1)

0000000000002470 <_ZdaPv@plt>:
    2470:	f3 0f 1e fa          	endbr64 
    2474:	f2 ff 25 dd ca 00 00 	bnd jmpq *0xcadd(%rip)        # ef58 <_ZdaPv@GLIBCXX_3.4>
    247b:	0f 1f 44 00 00       	nopl   0x0(%rax,%rax,1)

0000000000002480 <malloc@plt>:
    2480:	f3 0f 1e fa          	endbr64 
    2484:	f2 ff 25 d5 ca 00 00 	bnd jmpq *0xcad5(%rip)        # ef60 <malloc@GLIBC_2.2.5>
    248b:	0f 1f 44 00 00       	nopl   0x0(%rax,%rax,1)

0000000000002490 <strtol@plt>:
    2490:	f3 0f 1e fa          	endbr64 
    2494:	f2 ff 25 cd ca 00 00 	bnd jmpq *0xcacd(%rip)        # ef68 <strtol@GLIBC_2.2.5>
    249b:	0f 1f 44 00 00       	nopl   0x0(%rax,%rax,1)

00000000000024a0 <pthread_mutex_lock@plt>:
    24a0:	f3 0f 1e fa          	endbr64 
    24a4:	f2 ff 25 c5 ca 00 00 	bnd jmpq *0xcac5(%rip)        # ef70 <pthread_mutex_lock@GLIBC_2.2.5>
    24ab:	0f 1f 44 00 00       	nopl   0x0(%rax,%rax,1)

00000000000024b0 <pthread_mutex_init@plt>:
    24b0:	f3 0f 1e fa          	endbr64 
    24b4:	f2 ff 25 bd ca 00 00 	bnd jmpq *0xcabd(%rip)        # ef78 <pthread_mutex_init@GLIBC_2.2.5>
    24bb:	0f 1f 44 00 00       	nopl   0x0(%rax,%rax,1)

00000000000024c0 <fread@plt>:
    24c0:	f3 0f 1e fa          	endbr64 
    24c4:	f2 ff 25 b5 ca 00 00 	bnd jmpq *0xcab5(%rip)        # ef80 <fread@GLIBC_2.2.5>
    24cb:	0f 1f 44 00 00       	nopl   0x0(%rax,%rax,1)

00000000000024d0 <pthread_cond_wait@plt>:
    24d0:	f3 0f 1e fa          	endbr64 
    24d4:	f2 ff 25 ad ca 00 00 	bnd jmpq *0xcaad(%rip)        # ef88 <pthread_cond_wait@GLIBC_2.3.2>
    24db:	0f 1f 44 00 00       	nopl   0x0(%rax,%rax,1)

00000000000024e0 <_ZNSt8ios_base4InitC1Ev@plt>:
    24e0:	f3 0f 1e fa          	endbr64 
    24e4:	f2 ff 25 a5 ca 00 00 	bnd jmpq *0xcaa5(%rip)        # ef90 <_ZNSt8ios_base4InitC1Ev@GLIBCXX_3.4>
    24eb:	0f 1f 44 00 00       	nopl   0x0(%rax,%rax,1)

00000000000024f0 <puts@plt>:
    24f0:	f3 0f 1e fa          	endbr64 
    24f4:	f2 ff 25 9d ca 00 00 	bnd jmpq *0xca9d(%rip)        # ef98 <puts@GLIBC_2.2.5>
    24fb:	0f 1f 44 00 00       	nopl   0x0(%rax,%rax,1)

0000000000002500 <feof@plt>:
    2500:	f3 0f 1e fa          	endbr64 
    2504:	f2 ff 25 95 ca 00 00 	bnd jmpq *0xca95(%rip)        # efa0 <feof@GLIBC_2.2.5>
    250b:	0f 1f 44 00 00       	nopl   0x0(%rax,%rax,1)

0000000000002510 <__fprintf_chk@plt>:
    2510:	f3 0f 1e fa          	endbr64 
    2514:	f2 ff 25 8d ca 00 00 	bnd jmpq *0xca8d(%rip)        # efa8 <__fprintf_chk@GLIBC_2.3.4>
    251b:	0f 1f 44 00 00       	nopl   0x0(%rax,%rax,1)

0000000000002520 <srand48@plt>:
    2520:	f3 0f 1e fa          	endbr64 
    2524:	f2 ff 25 85 ca 00 00 	bnd jmpq *0xca85(%rip)        # efb0 <srand48@GLIBC_2.2.5>
    252b:	0f 1f 44 00 00       	nopl   0x0(%rax,%rax,1)

0000000000002530 <ferror@plt>:
    2530:	f3 0f 1e fa          	endbr64 
    2534:	f2 ff 25 7d ca 00 00 	bnd jmpq *0xca7d(%rip)        # efb8 <ferror@GLIBC_2.2.5>
    253b:	0f 1f 44 00 00       	nopl   0x0(%rax,%rax,1)

0000000000002540 <pthread_cond_destroy@plt>:
    2540:	f3 0f 1e fa          	endbr64 
    2544:	f2 ff 25 75 ca 00 00 	bnd jmpq *0xca75(%rip)        # efc0 <pthread_cond_destroy@GLIBC_2.3.2>
    254b:	0f 1f 44 00 00       	nopl   0x0(%rax,%rax,1)

0000000000002550 <fwrite@plt>:
    2550:	f3 0f 1e fa          	endbr64 
    2554:	f2 ff 25 6d ca 00 00 	bnd jmpq *0xca6d(%rip)        # efc8 <fwrite@GLIBC_2.2.5>
    255b:	0f 1f 44 00 00       	nopl   0x0(%rax,%rax,1)

Disassembly of section .text:

0000000000002560 <main>:
  contcenters(&centers);
  outcenterIDs( &centers, centerIDs, outfile);
}

int main(int argc, char **argv)
{
    2560:	f3 0f 1e fa          	endbr64 
    2564:	41 57                	push   %r15
    2566:	41 56                	push   %r14
    2568:	41 55                	push   %r13
    256a:	41 54                	push   %r12
    256c:	55                   	push   %rbp
    256d:	48 89 f5             	mov    %rsi,%rbp
    2570:	53                   	push   %rbx
    2571:	89 fb                	mov    %edi,%ebx
  char *outfilename = new char[MAXNAMESIZE];
    2573:	bf 00 04 00 00       	mov    $0x400,%edi
{
    2578:	48 83 ec 28          	sub    $0x28,%rsp
  char *outfilename = new char[MAXNAMESIZE];
    257c:	e8 5f fd ff ff       	callq  22e0 <_Znam@plt>
  char *infilename = new char[MAXNAMESIZE];
    2581:	bf 00 04 00 00       	mov    $0x400,%edi
  char *outfilename = new char[MAXNAMESIZE];
    2586:	49 89 c5             	mov    %rax,%r13
  char *infilename = new char[MAXNAMESIZE];
    2589:	e8 52 fd ff ff       	callq  22e0 <_Znam@plt>

# ifdef __va_arg_pack
__fortify_function int
fprintf (FILE *__restrict __stream, const char *__restrict __fmt, ...)
{
  return __fprintf_chk (__stream, __USE_FORTIFY_LEVEL - 1, __fmt,
    258e:	ba 31 00 00 00       	mov    $0x31,%edx
    2593:	be 01 00 00 00       	mov    $0x1,%esi
    2598:	48 8b 0d 81 ca 00 00 	mov    0xca81(%rip),%rcx        # f020 <stderr@@GLIBC_2.2.5>
    259f:	48 8d 3d 7a 9d 00 00 	lea    0x9d7a(%rip),%rdi        # c320 <_IO_stdin_used+0x320>
    25a6:	49 89 c6             	mov    %rax,%r14
    25a9:	e8 a2 ff ff ff       	callq  2550 <fwrite@plt>

#ifdef PARSEC_VERSION
#define __PARSEC_STRING(x) #x
#define __PARSEC_XSTRING(x) __PARSEC_STRING(x)
        fprintf(stderr,"PARSEC Benchmark Suite Version "__PARSEC_XSTRING(PARSEC_VERSION)"\n");
	fflush(NULL);
    25ae:	31 ff                	xor    %edi,%edi
    25b0:	e8 5b fe ff ff       	callq  2410 <fflush@plt>
#endif //PARSEC_VERSION
#ifdef ENABLE_PARSEC_HOOKS
  __parsec_bench_begin(__parsec_streamcluster);
#endif

  if (argc<10) {
    25b5:	83 fb 09             	cmp    $0x9,%ebx
    25b8:	0f 8e 34 01 00 00    	jle    26f2 <main+0x192>

#ifdef __USE_EXTERN_INLINES
__extern_inline int
__NTH (atoi (const char *__nptr))
{
  return (int) strtol (__nptr, (char **) NULL, 10);
    25be:	48 8b 7d 08          	mov    0x8(%rbp),%rdi
    25c2:	ba 0a 00 00 00       	mov    $0xa,%edx
    25c7:	31 f6                	xor    %esi,%esi
    25c9:	e8 c2 fe ff ff       	callq  2490 <strtol@plt>
    25ce:	48 8b 7d 10          	mov    0x10(%rbp),%rdi
    25d2:	ba 0a 00 00 00       	mov    $0xa,%edx
    25d7:	31 f6                	xor    %esi,%esi
    exit(1);
  }



  kmin = atoi(argv[1]);
    25d9:	48 98                	cltq   
    25db:	48 89 44 24 08       	mov    %rax,0x8(%rsp)
    25e0:	e8 ab fe ff ff       	callq  2490 <strtol@plt>
    25e5:	48 8b 7d 18          	mov    0x18(%rbp),%rdi
    25e9:	ba 0a 00 00 00       	mov    $0xa,%edx
    25ee:	31 f6                	xor    %esi,%esi
  kmax = atoi(argv[2]);
    25f0:	48 98                	cltq   
    25f2:	48 89 44 24 10       	mov    %rax,0x10(%rsp)
    25f7:	e8 94 fe ff ff       	callq  2490 <strtol@plt>
    25fc:	48 8b 7d 20          	mov    0x20(%rbp),%rdi
    2600:	ba 0a 00 00 00       	mov    $0xa,%edx
    2605:	31 f6                	xor    %esi,%esi
    2607:	49 89 c7             	mov    %rax,%r15
    260a:	e8 81 fe ff ff       	callq  2490 <strtol@plt>
    260f:	48 8b 7d 28          	mov    0x28(%rbp),%rdi
    2613:	ba 0a 00 00 00       	mov    $0xa,%edx
    2618:	31 f6                	xor    %esi,%esi
  dim = atoi(argv[3]);
  n = atoi(argv[4]);
    261a:	48 63 d8             	movslq %eax,%rbx
    261d:	e8 6e fe ff ff       	callq  2490 <strtol@plt>
    2622:	48 8b 7d 30          	mov    0x30(%rbp),%rdi
    2626:	ba 0a 00 00 00       	mov    $0xa,%edx
    262b:	31 f6                	xor    %esi,%esi
  chunksize = atoi(argv[5]);
    262d:	48 98                	cltq   
    262f:	48 89 44 24 18       	mov    %rax,0x18(%rsp)
    2634:	e8 57 fe ff ff       	callq  2490 <strtol@plt>
#endif

__fortify_function char *
__NTH (strcpy (char *__restrict __dest, const char *__restrict __src))
{
  return __builtin___strcpy_chk (__dest, __src, __bos (__dest));
    2639:	48 8b 75 38          	mov    0x38(%rbp),%rsi
    263d:	ba 00 04 00 00       	mov    $0x400,%edx
    2642:	4c 89 f7             	mov    %r14,%rdi
  clustersize = atoi(argv[6]);
    2645:	4c 63 e0             	movslq %eax,%r12
    2648:	e8 53 fd ff ff       	callq  23a0 <__strcpy_chk@plt>
    264d:	48 8b 75 40          	mov    0x40(%rbp),%rsi
    2651:	ba 00 04 00 00       	mov    $0x400,%edx
    2656:	4c 89 ef             	mov    %r13,%rdi
    2659:	e8 42 fd ff ff       	callq  23a0 <__strcpy_chk@plt>
    265e:	48 8b 7d 48          	mov    0x48(%rbp),%rdi
    2662:	ba 0a 00 00 00       	mov    $0xa,%edx
    2667:	31 f6                	xor    %esi,%esi
    2669:	e8 22 fe ff ff       	callq  2490 <strtol@plt>
  fprintf(stderr,"TBB version. Number of divisions: %d\n",NUM_DIVISIONS);
  tbb::task_scheduler_init init(nproc);
#endif


  srand48(SEED);
    266e:	bf 01 00 00 00       	mov    $0x1,%edi
    2673:	89 05 8f ca 00 00    	mov    %eax,0xca8f(%rip)        # f108 <_ZL5nproc>
    2679:	e8 a2 fe ff ff       	callq  2520 <srand48@plt>
  PStream* stream;
  if( n > 0 ) {
    stream = new SimStream(n);
    267e:	bf 10 00 00 00       	mov    $0x10,%edi
  if( n > 0 ) {
    2683:	48 85 db             	test   %rbx,%rbx
    2686:	7e 55                	jle    26dd <main+0x17d>
    stream = new SimStream(n);
    2688:	e8 43 fd ff ff       	callq  23d0 <_Znwm@plt>
    268d:	48 89 c5             	mov    %rax,%rbp
  SimStream(long n_ ) {
    2690:	48 8d 05 09 c5 00 00 	lea    0xc509(%rip),%rax        # eba0 <_ZTV9SimStream+0x10>
    2697:	48 89 45 00          	mov    %rax,0x0(%rbp)
    n = n_;
    269b:	48 89 5d 08          	mov    %rbx,0x8(%rbp)

#ifdef ENABLE_PARSEC_HOOKS
  __parsec_roi_begin();
#endif

  streamCluster(stream, kmin, kmax, dim, chunksize, clustersize, outfilename );
    269f:	48 83 ec 08          	sub    $0x8,%rsp
    26a3:	4d 89 e1             	mov    %r12,%r9
    26a6:	44 89 f9             	mov    %r15d,%ecx
    26a9:	48 89 ef             	mov    %rbp,%rdi
    26ac:	41 55                	push   %r13
    26ae:	4c 8b 44 24 28       	mov    0x28(%rsp),%r8
    26b3:	48 8b 54 24 20       	mov    0x20(%rsp),%rdx
    26b8:	48 8b 74 24 18       	mov    0x18(%rsp),%rsi
    26bd:	e8 ee 77 00 00       	callq  9eb0 <_Z13streamClusterP7PStreamllillPc>

#ifdef ENABLE_PARSEC_HOOKS
  __parsec_roi_end();
#endif

  delete stream;
    26c2:	48 8b 55 00          	mov    0x0(%rbp),%rdx
    26c6:	48 89 ef             	mov    %rbp,%rdi
    26c9:	ff 52 20             	callq  *0x20(%rdx)
#ifdef ENABLE_PARSEC_HOOKS
  __parsec_bench_end();
#endif
  
  return 0;
}
    26cc:	48 83 c4 38          	add    $0x38,%rsp
    26d0:	31 c0                	xor    %eax,%eax
    26d2:	5b                   	pop    %rbx
    26d3:	5d                   	pop    %rbp
    26d4:	41 5c                	pop    %r12
    26d6:	41 5d                	pop    %r13
    26d8:	41 5e                	pop    %r14
    26da:	41 5f                	pop    %r15
    26dc:	c3                   	retq   
    stream = new FileStream(infilename);
    26dd:	e8 ee fc ff ff       	callq  23d0 <_Znwm@plt>
    26e2:	4c 89 f6             	mov    %r14,%rsi
    26e5:	48 89 c7             	mov    %rax,%rdi
    26e8:	48 89 c5             	mov    %rax,%rbp
    26eb:	e8 70 88 00 00       	callq  af60 <_ZN10FileStreamC1EPc>
    26f0:	eb ad                	jmp    269f <main+0x13f>
    26f2:	48 8b 4d 00          	mov    0x0(%rbp),%rcx
    26f6:	48 8b 3d 23 c9 00 00 	mov    0xc923(%rip),%rdi        # f020 <stderr@@GLIBC_2.2.5>
    26fd:	48 8d 15 54 9c 00 00 	lea    0x9c54(%rip),%rdx        # c358 <_IO_stdin_used+0x358>
    2704:	31 c0                	xor    %eax,%eax
    2706:	be 01 00 00 00       	mov    $0x1,%esi
    270b:	e8 00 fe ff ff       	callq  2510 <__fprintf_chk@plt>
    2710:	ba 2e 00 00 00       	mov    $0x2e,%edx
    2715:	48 8b 0d 04 c9 00 00 	mov    0xc904(%rip),%rcx        # f020 <stderr@@GLIBC_2.2.5>
    271c:	be 01 00 00 00       	mov    $0x1,%esi
    2721:	48 8d 3d 70 9c 00 00 	lea    0x9c70(%rip),%rdi        # c398 <_IO_stdin_used+0x398>
    2728:	e8 23 fe ff ff       	callq  2550 <fwrite@plt>
    272d:	ba 2e 00 00 00       	mov    $0x2e,%edx
    2732:	48 8b 0d e7 c8 00 00 	mov    0xc8e7(%rip),%rcx        # f020 <stderr@@GLIBC_2.2.5>
    2739:	be 01 00 00 00       	mov    $0x1,%esi
    273e:	48 8d 3d 83 9c 00 00 	lea    0x9c83(%rip),%rdi        # c3c8 <_IO_stdin_used+0x3c8>
    2745:	e8 06 fe ff ff       	callq  2550 <fwrite@plt>
    274a:	ba 2c 00 00 00       	mov    $0x2c,%edx
    274f:	48 8b 0d ca c8 00 00 	mov    0xc8ca(%rip),%rcx        # f020 <stderr@@GLIBC_2.2.5>
    2756:	be 01 00 00 00       	mov    $0x1,%esi
    275b:	48 8d 3d 96 9c 00 00 	lea    0x9c96(%rip),%rdi        # c3f8 <_IO_stdin_used+0x3f8>
    2762:	e8 e9 fd ff ff       	callq  2550 <fwrite@plt>
    2767:	ba 25 00 00 00       	mov    $0x25,%edx
    276c:	48 8b 0d ad c8 00 00 	mov    0xc8ad(%rip),%rcx        # f020 <stderr@@GLIBC_2.2.5>
    2773:	be 01 00 00 00       	mov    $0x1,%esi
    2778:	48 8d 3d a9 9c 00 00 	lea    0x9ca9(%rip),%rdi        # c428 <_IO_stdin_used+0x428>
    277f:	e8 cc fd ff ff       	callq  2550 <fwrite@plt>
    2784:	ba 38 00 00 00       	mov    $0x38,%edx
    2789:	48 8b 0d 90 c8 00 00 	mov    0xc890(%rip),%rcx        # f020 <stderr@@GLIBC_2.2.5>
    2790:	be 01 00 00 00       	mov    $0x1,%esi
    2795:	48 8d 3d b4 9c 00 00 	lea    0x9cb4(%rip),%rdi        # c450 <_IO_stdin_used+0x450>
    279c:	e8 af fd ff ff       	callq  2550 <fwrite@plt>
    27a1:	ba 36 00 00 00       	mov    $0x36,%edx
    27a6:	48 8b 0d 73 c8 00 00 	mov    0xc873(%rip),%rcx        # f020 <stderr@@GLIBC_2.2.5>
    27ad:	be 01 00 00 00       	mov    $0x1,%esi
    27b2:	48 8d 3d d7 9c 00 00 	lea    0x9cd7(%rip),%rdi        # c490 <_IO_stdin_used+0x490>
    27b9:	e8 92 fd ff ff       	callq  2550 <fwrite@plt>
    27be:	ba 24 00 00 00       	mov    $0x24,%edx
    27c3:	48 8b 0d 56 c8 00 00 	mov    0xc856(%rip),%rcx        # f020 <stderr@@GLIBC_2.2.5>
    27ca:	be 01 00 00 00       	mov    $0x1,%esi
    27cf:	48 8d 3d f2 9c 00 00 	lea    0x9cf2(%rip),%rdi        # c4c8 <_IO_stdin_used+0x4c8>
    27d6:	e8 75 fd ff ff       	callq  2550 <fwrite@plt>
    27db:	ba 1b 00 00 00       	mov    $0x1b,%edx
    27e0:	48 8b 0d 39 c8 00 00 	mov    0xc839(%rip),%rcx        # f020 <stderr@@GLIBC_2.2.5>
    27e7:	be 01 00 00 00       	mov    $0x1,%esi
    27ec:	48 8d 3d 97 9a 00 00 	lea    0x9a97(%rip),%rdi        # c28a <_IO_stdin_used+0x28a>
    27f3:	e8 58 fd ff ff       	callq  2550 <fwrite@plt>
    27f8:	ba 28 00 00 00       	mov    $0x28,%edx
    27fd:	48 8b 0d 1c c8 00 00 	mov    0xc81c(%rip),%rcx        # f020 <stderr@@GLIBC_2.2.5>
    2804:	be 01 00 00 00       	mov    $0x1,%esi
    2809:	48 8d 3d e0 9c 00 00 	lea    0x9ce0(%rip),%rdi        # c4f0 <_IO_stdin_used+0x4f0>
    2810:	e8 3b fd ff ff       	callq  2550 <fwrite@plt>
    2815:	48 8b 35 04 c8 00 00 	mov    0xc804(%rip),%rsi        # f020 <stderr@@GLIBC_2.2.5>
    281c:	bf 0a 00 00 00       	mov    $0xa,%edi
    2821:	e8 3a fc ff ff       	callq  2460 <fputc@plt>
    2826:	ba 4c 00 00 00       	mov    $0x4c,%edx
    282b:	be 01 00 00 00       	mov    $0x1,%esi
    2830:	48 8b 0d e9 c7 00 00 	mov    0xc7e9(%rip),%rcx        # f020 <stderr@@GLIBC_2.2.5>
    2837:	48 8d 3d e2 9c 00 00 	lea    0x9ce2(%rip),%rdi        # c520 <_IO_stdin_used+0x520>
    283e:	e8 0d fd ff ff       	callq  2550 <fwrite@plt>
    exit(1);
    2843:	bf 01 00 00 00       	mov    $0x1,%edi
    2848:	e8 03 fc ff ff       	callq  2450 <exit@plt>
    284d:	0f 1f 00             	nopl   (%rax)

0000000000002850 <_GLOBAL__sub_I__Z11isIdenticalPfS_i>:
}
    2850:	f3 0f 1e fa          	endbr64 
    2854:	48 83 ec 08          	sub    $0x8,%rsp
  extern wostream wclog;	/// Linked to standard error (buffered)
#endif
  //@}

  // For construction of filebuffers for cout, cin, cerr, clog et. al.
  static ios_base::Init __ioinit;
    2858:	48 8d 3d c9 c8 00 00 	lea    0xc8c9(%rip),%rdi        # f128 <_ZStL8__ioinit>
    285f:	e8 7c fc ff ff       	callq  24e0 <_ZNSt8ios_base4InitC1Ev@plt>
    2864:	48 8b 3d 8d c7 00 00 	mov    0xc78d(%rip),%rdi        # eff8 <_ZNSt8ios_base4InitD1Ev@GLIBCXX_3.4>
    286b:	48 83 c4 08          	add    $0x8,%rsp
    286f:	48 8d 15 92 c7 00 00 	lea    0xc792(%rip),%rdx        # f008 <__dso_handle>
    2876:	48 8d 35 ab c8 00 00 	lea    0xc8ab(%rip),%rsi        # f128 <_ZStL8__ioinit>
    287d:	e9 2e fb ff ff       	jmpq   23b0 <__cxa_atexit@plt>
    2882:	66 2e 0f 1f 84 00 00 	nopw   %cs:0x0(%rax,%rax,1)
    2889:	00 00 00 
    288c:	0f 1f 40 00          	nopl   0x0(%rax)

0000000000002890 <_start>:
    2890:	f3 0f 1e fa          	endbr64 
    2894:	31 ed                	xor    %ebp,%ebp
    2896:	49 89 d1             	mov    %rdx,%r9
    2899:	5e                   	pop    %rsi
    289a:	48 89 e2             	mov    %rsp,%rdx
    289d:	48 83 e4 f0          	and    $0xfffffffffffffff0,%rsp
    28a1:	50                   	push   %rax
    28a2:	54                   	push   %rsp
    28a3:	4c 8d 05 36 8b 00 00 	lea    0x8b36(%rip),%r8        # b3e0 <__libc_csu_fini>
    28aa:	48 8d 0d bf 8a 00 00 	lea    0x8abf(%rip),%rcx        # b370 <__libc_csu_init>
    28b1:	48 8d 3d a8 fc ff ff 	lea    -0x358(%rip),%rdi        # 2560 <main>
    28b8:	ff 15 22 c7 00 00    	callq  *0xc722(%rip)        # efe0 <__libc_start_main@GLIBC_2.2.5>
    28be:	f4                   	hlt    
    28bf:	90                   	nop

00000000000028c0 <deregister_tm_clones>:
    28c0:	48 8d 3d 49 c7 00 00 	lea    0xc749(%rip),%rdi        # f010 <__TMC_END__>
    28c7:	48 8d 05 42 c7 00 00 	lea    0xc742(%rip),%rax        # f010 <__TMC_END__>
    28ce:	48 39 f8             	cmp    %rdi,%rax
    28d1:	74 15                	je     28e8 <deregister_tm_clones+0x28>
    28d3:	48 8b 05 fe c6 00 00 	mov    0xc6fe(%rip),%rax        # efd8 <_ITM_deregisterTMCloneTable>
    28da:	48 85 c0             	test   %rax,%rax
    28dd:	74 09                	je     28e8 <deregister_tm_clones+0x28>
    28df:	ff e0                	jmpq   *%rax
    28e1:	0f 1f 80 00 00 00 00 	nopl   0x0(%rax)
    28e8:	c3                   	retq   
    28e9:	0f 1f 80 00 00 00 00 	nopl   0x0(%rax)

00000000000028f0 <register_tm_clones>:
    28f0:	48 8d 3d 19 c7 00 00 	lea    0xc719(%rip),%rdi        # f010 <__TMC_END__>
    28f7:	48 8d 35 12 c7 00 00 	lea    0xc712(%rip),%rsi        # f010 <__TMC_END__>
    28fe:	48 29 fe             	sub    %rdi,%rsi
    2901:	48 c1 fe 03          	sar    $0x3,%rsi
    2905:	48 89 f0             	mov    %rsi,%rax
    2908:	48 c1 e8 3f          	shr    $0x3f,%rax
    290c:	48 01 c6             	add    %rax,%rsi
    290f:	48 d1 fe             	sar    %rsi
    2912:	74 14                	je     2928 <register_tm_clones+0x38>
    2914:	48 8b 05 d5 c6 00 00 	mov    0xc6d5(%rip),%rax        # eff0 <_ITM_registerTMCloneTable>
    291b:	48 85 c0             	test   %rax,%rax
    291e:	74 08                	je     2928 <register_tm_clones+0x38>
    2920:	ff e0                	jmpq   *%rax
    2922:	66 0f 1f 44 00 00    	nopw   0x0(%rax,%rax,1)
    2928:	c3                   	retq   
    2929:	0f 1f 80 00 00 00 00 	nopl   0x0(%rax)

0000000000002930 <__do_global_dtors_aux>:
    2930:	f3 0f 1e fa          	endbr64 
    2934:	80 3d ed c6 00 00 00 	cmpb   $0x0,0xc6ed(%rip)        # f028 <completed.7970>
    293b:	75 2b                	jne    2968 <__do_global_dtors_aux+0x38>
    293d:	55                   	push   %rbp
    293e:	48 83 3d 8a c6 00 00 	cmpq   $0x0,0xc68a(%rip)        # efd0 <__cxa_finalize@GLIBC_2.2.5>
    2945:	00 
    2946:	48 89 e5             	mov    %rsp,%rbp
    2949:	74 0c                	je     2957 <__do_global_dtors_aux+0x27>
    294b:	48 8b 3d b6 c6 00 00 	mov    0xc6b6(%rip),%rdi        # f008 <__dso_handle>
    2952:	e8 69 f9 ff ff       	callq  22c0 <__cxa_finalize@plt>
    2957:	e8 64 ff ff ff       	callq  28c0 <deregister_tm_clones>
    295c:	c6 05 c5 c6 00 00 01 	movb   $0x1,0xc6c5(%rip)        # f028 <completed.7970>
    2963:	5d                   	pop    %rbp
    2964:	c3                   	retq   
    2965:	0f 1f 00             	nopl   (%rax)
    2968:	c3                   	retq   
    2969:	0f 1f 80 00 00 00 00 	nopl   0x0(%rax)

0000000000002970 <frame_dummy>:
    2970:	f3 0f 1e fa          	endbr64 
    2974:	e9 77 ff ff ff       	jmpq   28f0 <register_tm_clones>
    2979:	0f 1f 80 00 00 00 00 	nopl   0x0(%rax)

0000000000002980 <_Z11isIdenticalPfS_i>:
{
    2980:	f3 0f 1e fa          	endbr64 
  int a = 0;
    2984:	45 31 c0             	xor    %r8d,%r8d
    2987:	41 39 d0             	cmp    %edx,%r8d
    298a:	b8 01 00 00 00       	mov    $0x1,%eax
    298f:	0f 9d c1             	setge  %cl
    2992:	66 0f 1f 44 00 00    	nopw   0x0(%rax,%rax,1)
  while (equal && a < D) {
    2998:	85 c0                	test   %eax,%eax
    299a:	74 24                	je     29c0 <_Z11isIdenticalPfS_i+0x40>
    299c:	84 c9                	test   %cl,%cl
    299e:	75 20                	jne    29c0 <_Z11isIdenticalPfS_i+0x40>
    if (i[a] != j[a]) equal = 0;
    29a0:	31 c0                	xor    %eax,%eax
    29a2:	f3 0f 10 07          	movss  (%rdi),%xmm0
    29a6:	0f 2e 06             	ucomiss (%rsi),%xmm0
    29a9:	7a ed                	jp     2998 <_Z11isIdenticalPfS_i+0x18>
    29ab:	75 eb                	jne    2998 <_Z11isIdenticalPfS_i+0x18>
    else a++;
    29ad:	41 83 c0 01          	add    $0x1,%r8d
    29b1:	48 83 c7 04          	add    $0x4,%rdi
    29b5:	48 83 c6 04          	add    $0x4,%rsi
    29b9:	eb cc                	jmp    2987 <_Z11isIdenticalPfS_i+0x7>
    29bb:	0f 1f 44 00 00       	nopl   0x0(%rax,%rax,1)
}
    29c0:	c3                   	retq   
    29c1:	66 66 2e 0f 1f 84 00 	data16 nopw %cs:0x0(%rax,%rax,1)
    29c8:	00 00 00 00 
    29cc:	0f 1f 40 00          	nopl   0x0(%rax)

00000000000029d0 <_Z7shuffleP6Points>:
{
    29d0:	f3 0f 1e fa          	endbr64 
  for (i=0;i<points->num-1;i++) {
    29d4:	48 83 3f 01          	cmpq   $0x1,(%rdi)
    29d8:	0f 8e 8a 00 00 00    	jle    2a68 <_Z7shuffleP6Points+0x98>
{
    29de:	55                   	push   %rbp
    29df:	48 89 fd             	mov    %rdi,%rbp
    29e2:	53                   	push   %rbx
  for (i=0;i<points->num-1;i++) {
    29e3:	31 db                	xor    %ebx,%ebx
{
    29e5:	48 83 ec 08          	sub    $0x8,%rsp
    29e9:	0f 1f 80 00 00 00 00 	nopl   0x0(%rax)
    j=(lrand48()%(points->num - i)) + i;
    29f0:	e8 7b f9 ff ff       	callq  2370 <lrand48@plt>
    29f5:	4c 8b 45 00          	mov    0x0(%rbp),%r8
    temp = points->p[i];
    29f9:	48 8b 4d 10          	mov    0x10(%rbp),%rcx
    29fd:	48 89 de             	mov    %rbx,%rsi
    j=(lrand48()%(points->num - i)) + i;
    2a00:	48 99                	cqto   
    temp = points->p[i];
    2a02:	48 c1 e6 05          	shl    $0x5,%rsi
    j=(lrand48()%(points->num - i)) + i;
    2a06:	4d 89 c2             	mov    %r8,%r10
    temp = points->p[i];
    2a09:	48 01 ce             	add    %rcx,%rsi
  for (i=0;i<points->num-1;i++) {
    2a0c:	49 83 e8 01          	sub    $0x1,%r8
    j=(lrand48()%(points->num - i)) + i;
    2a10:	49 29 da             	sub    %rbx,%r10
    temp = points->p[i];
    2a13:	f3 0f 10 0e          	movss  (%rsi),%xmm1
    2a17:	4c 8b 4e 08          	mov    0x8(%rsi),%r9
    j=(lrand48()%(points->num - i)) + i;
    2a1b:	49 f7 fa             	idiv   %r10
    temp = points->p[i];
    2a1e:	48 8b 7e 10          	mov    0x10(%rsi),%rdi
    2a22:	f3 0f 10 46 18       	movss  0x18(%rsi),%xmm0
    j=(lrand48()%(points->num - i)) + i;
    2a27:	48 01 da             	add    %rbx,%rdx
  for (i=0;i<points->num-1;i++) {
    2a2a:	48 83 c3 01          	add    $0x1,%rbx
    points->p[i] = points->p[j];
    2a2e:	48 c1 e2 05          	shl    $0x5,%rdx
    2a32:	48 01 ca             	add    %rcx,%rdx
    2a35:	f3 0f 6f 12          	movdqu (%rdx),%xmm2
    2a39:	0f 11 16             	movups %xmm2,(%rsi)
    2a3c:	f3 0f 6f 5a 10       	movdqu 0x10(%rdx),%xmm3
    2a41:	0f 11 5e 10          	movups %xmm3,0x10(%rsi)
    points->p[j] = temp;
    2a45:	f3 0f 11 0a          	movss  %xmm1,(%rdx)
    2a49:	4c 89 4a 08          	mov    %r9,0x8(%rdx)
    2a4d:	48 89 7a 10          	mov    %rdi,0x10(%rdx)
    2a51:	f3 0f 11 42 18       	movss  %xmm0,0x18(%rdx)
  for (i=0;i<points->num-1;i++) {
    2a56:	49 39 d8             	cmp    %rbx,%r8
    2a59:	7f 95                	jg     29f0 <_Z7shuffleP6Points+0x20>
}
    2a5b:	48 83 c4 08          	add    $0x8,%rsp
    2a5f:	5b                   	pop    %rbx
    2a60:	5d                   	pop    %rbp
    2a61:	c3                   	retq   
    2a62:	66 0f 1f 44 00 00    	nopw   0x0(%rax,%rax,1)
    2a68:	c3                   	retq   
    2a69:	0f 1f 80 00 00 00 00 	nopl   0x0(%rax)

0000000000002a70 <_Z10intshufflePii>:
{
    2a70:	f3 0f 1e fa          	endbr64 
    2a74:	41 55                	push   %r13
    2a76:	41 54                	push   %r12
  for (i=0;i<length;i++) {
    2a78:	4c 63 e6             	movslq %esi,%r12
{
    2a7b:	55                   	push   %rbp
    2a7c:	53                   	push   %rbx
    2a7d:	48 83 ec 08          	sub    $0x8,%rsp
  for (i=0;i<length;i++) {
    2a81:	4d 85 e4             	test   %r12,%r12
    2a84:	0f 8e 3b 01 00 00    	jle    2bc5 <_Z10intshufflePii+0x155>
    2a8a:	4c 89 e0             	mov    %r12,%rax
    2a8d:	48 89 fb             	mov    %rdi,%rbx
    2a90:	31 ed                	xor    %ebp,%ebp
    2a92:	83 e0 03             	and    $0x3,%eax
    2a95:	0f 84 80 00 00 00    	je     2b1b <_Z10intshufflePii+0xab>
    2a9b:	48 83 f8 01          	cmp    $0x1,%rax
    2a9f:	74 4a                	je     2aeb <_Z10intshufflePii+0x7b>
    2aa1:	48 83 f8 02          	cmp    $0x2,%rax
    2aa5:	74 1b                	je     2ac2 <_Z10intshufflePii+0x52>
    j=(lrand48()%(length - i))+i;
    2aa7:	e8 c4 f8 ff ff       	callq  2370 <lrand48@plt>
    temp = intarray[i];
    2aac:	8b 0b                	mov    (%rbx),%ecx
  for (i=0;i<length;i++) {
    2aae:	bd 01 00 00 00       	mov    $0x1,%ebp
    j=(lrand48()%(length - i))+i;
    2ab3:	48 99                	cqto   
    2ab5:	49 f7 fc             	idiv   %r12
    intarray[i]=intarray[j];
    2ab8:	48 8d 34 93          	lea    (%rbx,%rdx,4),%rsi
    2abc:	8b 3e                	mov    (%rsi),%edi
    2abe:	89 3b                	mov    %edi,(%rbx)
    intarray[j]=temp;
    2ac0:	89 0e                	mov    %ecx,(%rsi)
    j=(lrand48()%(length - i))+i;
    2ac2:	e8 a9 f8 ff ff       	callq  2370 <lrand48@plt>
    2ac7:	4d 89 e1             	mov    %r12,%r9
    temp = intarray[i];
    2aca:	44 8b 04 ab          	mov    (%rbx,%rbp,4),%r8d
    j=(lrand48()%(length - i))+i;
    2ace:	49 29 e9             	sub    %rbp,%r9
    2ad1:	48 99                	cqto   
    2ad3:	49 f7 f9             	idiv   %r9
    2ad6:	48 01 ea             	add    %rbp,%rdx
    intarray[i]=intarray[j];
    2ad9:	4c 8d 14 93          	lea    (%rbx,%rdx,4),%r10
    2add:	45 8b 1a             	mov    (%r10),%r11d
    2ae0:	44 89 1c ab          	mov    %r11d,(%rbx,%rbp,4)
  for (i=0;i<length;i++) {
    2ae4:	48 83 c5 01          	add    $0x1,%rbp
    intarray[j]=temp;
    2ae8:	45 89 02             	mov    %r8d,(%r10)
    j=(lrand48()%(length - i))+i;
    2aeb:	e8 80 f8 ff ff       	callq  2370 <lrand48@plt>
    2af0:	4c 89 e1             	mov    %r12,%rcx
    temp = intarray[i];
    2af3:	44 8b 2c ab          	mov    (%rbx,%rbp,4),%r13d
    j=(lrand48()%(length - i))+i;
    2af7:	48 29 e9             	sub    %rbp,%rcx
    2afa:	48 99                	cqto   
    2afc:	48 f7 f9             	idiv   %rcx
    2aff:	48 01 ea             	add    %rbp,%rdx
    intarray[i]=intarray[j];
    2b02:	48 8d 04 93          	lea    (%rbx,%rdx,4),%rax
    2b06:	8b 30                	mov    (%rax),%esi
    2b08:	89 34 ab             	mov    %esi,(%rbx,%rbp,4)
  for (i=0;i<length;i++) {
    2b0b:	48 83 c5 01          	add    $0x1,%rbp
    intarray[j]=temp;
    2b0f:	44 89 28             	mov    %r13d,(%rax)
  for (i=0;i<length;i++) {
    2b12:	4c 39 e5             	cmp    %r12,%rbp
    2b15:	0f 84 aa 00 00 00    	je     2bc5 <_Z10intshufflePii+0x155>
    j=(lrand48()%(length - i))+i;
    2b1b:	e8 50 f8 ff ff       	callq  2370 <lrand48@plt>
    2b20:	4d 89 e0             	mov    %r12,%r8
    temp = intarray[i];
    2b23:	8b 3c ab             	mov    (%rbx,%rbp,4),%edi
  for (i=0;i<length;i++) {
    2b26:	4c 8d 6d 01          	lea    0x1(%rbp),%r13
    j=(lrand48()%(length - i))+i;
    2b2a:	49 29 e8             	sub    %rbp,%r8
    2b2d:	48 99                	cqto   
    2b2f:	49 f7 f8             	idiv   %r8
    2b32:	48 01 ea             	add    %rbp,%rdx
    intarray[i]=intarray[j];
    2b35:	4c 8d 0c 93          	lea    (%rbx,%rdx,4),%r9
    2b39:	45 8b 11             	mov    (%r9),%r10d
    2b3c:	44 89 14 ab          	mov    %r10d,(%rbx,%rbp,4)
    intarray[j]=temp;
    2b40:	41 89 39             	mov    %edi,(%r9)
    j=(lrand48()%(length - i))+i;
    2b43:	e8 28 f8 ff ff       	callq  2370 <lrand48@plt>
    2b48:	4c 89 e1             	mov    %r12,%rcx
    temp = intarray[i];
    2b4b:	46 8b 1c ab          	mov    (%rbx,%r13,4),%r11d
    j=(lrand48()%(length - i))+i;
    2b4f:	4c 29 e9             	sub    %r13,%rcx
    2b52:	48 99                	cqto   
    2b54:	48 f7 f9             	idiv   %rcx
    2b57:	4c 01 ea             	add    %r13,%rdx
    intarray[i]=intarray[j];
    2b5a:	48 8d 04 93          	lea    (%rbx,%rdx,4),%rax
    2b5e:	8b 30                	mov    (%rax),%esi
    2b60:	42 89 34 ab          	mov    %esi,(%rbx,%r13,4)
  for (i=0;i<length;i++) {
    2b64:	4c 8d 6d 02          	lea    0x2(%rbp),%r13
    intarray[j]=temp;
    2b68:	44 89 18             	mov    %r11d,(%rax)
    j=(lrand48()%(length - i))+i;
    2b6b:	e8 00 f8 ff ff       	callq  2370 <lrand48@plt>
    2b70:	4d 89 e0             	mov    %r12,%r8
    temp = intarray[i];
    2b73:	42 8b 3c ab          	mov    (%rbx,%r13,4),%edi
    j=(lrand48()%(length - i))+i;
    2b77:	4d 29 e8             	sub    %r13,%r8
    2b7a:	48 99                	cqto   
    2b7c:	49 f7 f8             	idiv   %r8
    2b7f:	4c 01 ea             	add    %r13,%rdx
    intarray[i]=intarray[j];
    2b82:	4c 8d 0c 93          	lea    (%rbx,%rdx,4),%r9
    2b86:	45 8b 11             	mov    (%r9),%r10d
    2b89:	46 89 14 ab          	mov    %r10d,(%rbx,%r13,4)
  for (i=0;i<length;i++) {
    2b8d:	4c 8d 6d 03          	lea    0x3(%rbp),%r13
    2b91:	48 83 c5 04          	add    $0x4,%rbp
    intarray[j]=temp;
    2b95:	41 89 39             	mov    %edi,(%r9)
    j=(lrand48()%(length - i))+i;
    2b98:	e8 d3 f7 ff ff       	callq  2370 <lrand48@plt>
    2b9d:	4c 89 e1             	mov    %r12,%rcx
    temp = intarray[i];
    2ba0:	46 8b 1c ab          	mov    (%rbx,%r13,4),%r11d
    j=(lrand48()%(length - i))+i;
    2ba4:	4c 29 e9             	sub    %r13,%rcx
    2ba7:	48 99                	cqto   
    2ba9:	48 f7 f9             	idiv   %rcx
    2bac:	4c 01 ea             	add    %r13,%rdx
    intarray[i]=intarray[j];
    2baf:	48 8d 04 93          	lea    (%rbx,%rdx,4),%rax
    2bb3:	8b 30                	mov    (%rax),%esi
    2bb5:	42 89 34 ab          	mov    %esi,(%rbx,%r13,4)
    intarray[j]=temp;
    2bb9:	44 89 18             	mov    %r11d,(%rax)
  for (i=0;i<length;i++) {
    2bbc:	4c 39 e5             	cmp    %r12,%rbp
    2bbf:	0f 85 56 ff ff ff    	jne    2b1b <_Z10intshufflePii+0xab>
}
    2bc5:	48 83 c4 08          	add    $0x8,%rsp
    2bc9:	5b                   	pop    %rbx
    2bca:	5d                   	pop    %rbp
    2bcb:	41 5c                	pop    %r12
    2bcd:	41 5d                	pop    %r13
    2bcf:	c3                   	retq   

0000000000002bd0 <_Z4dist5PointS_i>:
{
    2bd0:	f3 0f 1e fa          	endbr64 
    2bd4:	53                   	push   %rbx
    2bd5:	4c 8b 4c 24 18       	mov    0x18(%rsp),%r9
    2bda:	4c 8b 44 24 38       	mov    0x38(%rsp),%r8
  for (i=0;i<dim;i++)
    2bdf:	85 ff                	test   %edi,%edi
    2be1:	0f 8e 89 03 00 00    	jle    2f70 <_Z4dist5PointS_i+0x3a0>
    2be7:	8d 47 ff             	lea    -0x1(%rdi),%eax
    2bea:	83 f8 02             	cmp    $0x2,%eax
    2bed:	0f 86 83 03 00 00    	jbe    2f76 <_Z4dist5PointS_i+0x3a6>
    2bf3:	89 fe                	mov    %edi,%esi
    2bf5:	c1 ee 02             	shr    $0x2,%esi
    2bf8:	83 fe 04             	cmp    $0x4,%esi
    2bfb:	0f 86 7d 03 00 00    	jbe    2f7e <_Z4dist5PointS_i+0x3ae>
    2c01:	8d 4e fb             	lea    -0x5(%rsi),%ecx
    2c04:	4c 89 c0             	mov    %r8,%rax
    2c07:	4c 89 ca             	mov    %r9,%rdx
    2c0a:	45 31 d2             	xor    %r10d,%r10d
    2c0d:	83 e1 fc             	and    $0xfffffffc,%ecx
  float result=0.0;
    2c10:	66 0f ef c9          	pxor   %xmm1,%xmm1
    2c14:	8d 59 04             	lea    0x4(%rcx),%ebx
    2c17:	eb 0a                	jmp    2c23 <_Z4dist5PointS_i+0x53>
    2c19:	0f 1f 80 00 00 00 00 	nopl   0x0(%rax)
    result += (p1.coord[i] - p2.coord[i])*(p1.coord[i] - p2.coord[i]);
    2c20:	45 89 da             	mov    %r11d,%r10d
    2c23:	0f 10 38             	movups (%rax),%xmm7
    2c26:	0f 10 02             	movups (%rdx),%xmm0
    2c29:	0f 18 8a 00 01 00 00 	prefetcht0 0x100(%rdx)
    2c30:	0f 18 88 00 01 00 00 	prefetcht0 0x100(%rax)
    2c37:	0f 10 6a 10          	movups 0x10(%rdx),%xmm5
    2c3b:	0f 10 70 10          	movups 0x10(%rax),%xmm6
    2c3f:	48 83 c2 40          	add    $0x40,%rdx
    2c43:	48 83 c0 40          	add    $0x40,%rax
    2c47:	0f 5c c7             	subps  %xmm7,%xmm0
    2c4a:	44 0f 10 5a e0       	movups -0x20(%rdx),%xmm11
    2c4f:	0f 10 78 f0          	movups -0x10(%rax),%xmm7
    2c53:	45 8d 5a 04          	lea    0x4(%r10),%r11d
    2c57:	0f 5c ee             	subps  %xmm6,%xmm5
    2c5a:	44 0f 10 60 e0       	movups -0x20(%rax),%xmm12
    2c5f:	0f 59 c0             	mulps  %xmm0,%xmm0
    2c62:	45 0f 5c dc          	subps  %xmm12,%xmm11
    2c66:	0f 59 ed             	mulps  %xmm5,%xmm5
    2c69:	45 0f 59 db          	mulps  %xmm11,%xmm11
    2c6d:	f3 0f 58 c8          	addss  %xmm0,%xmm1
    2c71:	0f 28 d8             	movaps %xmm0,%xmm3
    2c74:	0f 28 e0             	movaps %xmm0,%xmm4
    2c77:	0f c6 d8 55          	shufps $0x55,%xmm0,%xmm3
    2c7b:	0f 15 e0             	unpckhps %xmm0,%xmm4
    2c7e:	0f c6 c0 ff          	shufps $0xff,%xmm0,%xmm0
    2c82:	44 0f 28 cd          	movaps %xmm5,%xmm9
    2c86:	44 0f c6 cd 55       	shufps $0x55,%xmm5,%xmm9
    2c8b:	44 0f 28 d5          	movaps %xmm5,%xmm10
    2c8f:	f3 0f 58 cb          	addss  %xmm3,%xmm1
    2c93:	44 0f 15 d5          	unpckhps %xmm5,%xmm10
    2c97:	45 0f 28 f3          	movaps %xmm11,%xmm14
    2c9b:	45 0f c6 f3 55       	shufps $0x55,%xmm11,%xmm14
    2ca0:	45 0f 28 fb          	movaps %xmm11,%xmm15
    2ca4:	45 0f 15 fb          	unpckhps %xmm11,%xmm15
    2ca8:	f3 0f 58 cc          	addss  %xmm4,%xmm1
    2cac:	f3 0f 58 c8          	addss  %xmm0,%xmm1
    2cb0:	0f 10 42 f0          	movups -0x10(%rdx),%xmm0
    2cb4:	0f 5c c7             	subps  %xmm7,%xmm0
    2cb7:	f3 0f 58 cd          	addss  %xmm5,%xmm1
    2cbb:	0f c6 ed ff          	shufps $0xff,%xmm5,%xmm5
    2cbf:	0f 59 c0             	mulps  %xmm0,%xmm0
    2cc2:	f3 41 0f 58 c9       	addss  %xmm9,%xmm1
    2cc7:	f3 41 0f 58 ca       	addss  %xmm10,%xmm1
    2ccc:	0f 28 d8             	movaps %xmm0,%xmm3
    2ccf:	0f 28 e0             	movaps %xmm0,%xmm4
    2cd2:	0f c6 d8 55          	shufps $0x55,%xmm0,%xmm3
    2cd6:	0f 15 e0             	unpckhps %xmm0,%xmm4
    2cd9:	f3 0f 58 cd          	addss  %xmm5,%xmm1
    2cdd:	f3 41 0f 58 cb       	addss  %xmm11,%xmm1
    2ce2:	45 0f c6 db ff       	shufps $0xff,%xmm11,%xmm11
    2ce7:	f3 41 0f 58 ce       	addss  %xmm14,%xmm1
    2cec:	f3 41 0f 58 cf       	addss  %xmm15,%xmm1
    2cf1:	f3 41 0f 58 cb       	addss  %xmm11,%xmm1
    2cf6:	f3 0f 58 c8          	addss  %xmm0,%xmm1
    2cfa:	0f c6 c0 ff          	shufps $0xff,%xmm0,%xmm0
    2cfe:	f3 0f 58 cb          	addss  %xmm3,%xmm1
    2d02:	f3 0f 58 cc          	addss  %xmm4,%xmm1
    2d06:	f3 0f 58 c8          	addss  %xmm0,%xmm1
  for (i=0;i<dim;i++)
    2d0a:	41 39 ca             	cmp    %ecx,%r10d
    2d0d:	0f 85 0d ff ff ff    	jne    2c20 <_Z4dist5PointS_i+0x50>
    result += (p1.coord[i] - p2.coord[i])*(p1.coord[i] - p2.coord[i]);
    2d13:	0f 10 32             	movups (%rdx),%xmm6
    2d16:	0f 10 28             	movups (%rax),%xmm5
    2d19:	41 89 db             	mov    %ebx,%r11d
    2d1c:	44 8d 53 01          	lea    0x1(%rbx),%r10d
    2d20:	41 f7 d3             	not    %r11d
    2d23:	b9 10 00 00 00       	mov    $0x10,%ecx
    2d28:	0f 5c f5             	subps  %xmm5,%xmm6
    2d2b:	41 01 f3             	add    %esi,%r11d
    2d2e:	41 83 e3 03          	and    $0x3,%r11d
    2d32:	0f 59 f6             	mulps  %xmm6,%xmm6
    2d35:	0f 28 c6             	movaps %xmm6,%xmm0
    2d38:	44 0f 28 c6          	movaps %xmm6,%xmm8
    2d3c:	44 0f 28 ce          	movaps %xmm6,%xmm9
    2d40:	f3 0f 58 c1          	addss  %xmm1,%xmm0
    2d44:	44 0f c6 c6 55       	shufps $0x55,%xmm6,%xmm8
    2d49:	44 0f 15 ce          	unpckhps %xmm6,%xmm9
    2d4d:	0f c6 f6 ff          	shufps $0xff,%xmm6,%xmm6
    2d51:	f3 41 0f 58 c0       	addss  %xmm8,%xmm0
    2d56:	f3 41 0f 58 c1       	addss  %xmm9,%xmm0
    2d5b:	f3 0f 58 c6          	addss  %xmm6,%xmm0
  for (i=0;i<dim;i++)
    2d5f:	44 39 d6             	cmp    %r10d,%esi
    2d62:	0f 86 a5 01 00 00    	jbe    2f0d <_Z4dist5PointS_i+0x33d>
    2d68:	45 85 db             	test   %r11d,%r11d
    2d6b:	0f 84 9f 00 00 00    	je     2e10 <_Z4dist5PointS_i+0x240>
    2d71:	41 83 fb 01          	cmp    $0x1,%r11d
    2d75:	74 4e                	je     2dc5 <_Z4dist5PointS_i+0x1f5>
    2d77:	41 83 fb 02          	cmp    $0x2,%r11d
    2d7b:	0f 85 0e 02 00 00    	jne    2f8f <_Z4dist5PointS_i+0x3bf>
    result += (p1.coord[i] - p2.coord[i])*(p1.coord[i] - p2.coord[i]);
    2d81:	44 0f 10 3c 0a       	movups (%rdx,%rcx,1),%xmm15
    2d86:	0f 10 3c 08          	movups (%rax,%rcx,1),%xmm7
    2d8a:	41 83 c2 01          	add    $0x1,%r10d
    2d8e:	48 83 c1 10          	add    $0x10,%rcx
    2d92:	44 0f 5c ff          	subps  %xmm7,%xmm15
    2d96:	45 0f 59 ff          	mulps  %xmm15,%xmm15
    2d9a:	f3 41 0f 58 c7       	addss  %xmm15,%xmm0
    2d9f:	41 0f 28 df          	movaps %xmm15,%xmm3
    2da3:	41 0f 28 e7          	movaps %xmm15,%xmm4
    2da7:	41 0f c6 df 55       	shufps $0x55,%xmm15,%xmm3
    2dac:	41 0f 15 e7          	unpckhps %xmm15,%xmm4
    2db0:	45 0f c6 ff ff       	shufps $0xff,%xmm15,%xmm15
    2db5:	f3 0f 58 c3          	addss  %xmm3,%xmm0
    2db9:	f3 0f 58 e0          	addss  %xmm0,%xmm4
    2dbd:	41 0f 28 c7          	movaps %xmm15,%xmm0
    2dc1:	f3 0f 58 c4          	addss  %xmm4,%xmm0
    2dc5:	0f 10 0c 0a          	movups (%rdx,%rcx,1),%xmm1
    2dc9:	0f 10 34 08          	movups (%rax,%rcx,1),%xmm6
    2dcd:	41 83 c2 01          	add    $0x1,%r10d
    2dd1:	48 83 c1 10          	add    $0x10,%rcx
    2dd5:	0f 5c ce             	subps  %xmm6,%xmm1
    2dd8:	0f 59 c9             	mulps  %xmm1,%xmm1
    2ddb:	f3 0f 58 c1          	addss  %xmm1,%xmm0
    2ddf:	44 0f 28 c1          	movaps %xmm1,%xmm8
    2de3:	44 0f 28 c9          	movaps %xmm1,%xmm9
    2de7:	44 0f c6 c1 55       	shufps $0x55,%xmm1,%xmm8
    2dec:	44 0f 15 c9          	unpckhps %xmm1,%xmm9
    2df0:	0f c6 c9 ff          	shufps $0xff,%xmm1,%xmm1
    2df4:	f3 41 0f 58 c0       	addss  %xmm8,%xmm0
    2df9:	f3 44 0f 58 c8       	addss  %xmm0,%xmm9
    2dfe:	0f 28 c1             	movaps %xmm1,%xmm0
    2e01:	f3 41 0f 58 c1       	addss  %xmm9,%xmm0
  for (i=0;i<dim;i++)
    2e06:	44 39 d6             	cmp    %r10d,%esi
    2e09:	0f 86 fe 00 00 00    	jbe    2f0d <_Z4dist5PointS_i+0x33d>
    2e0f:	90                   	nop
    result += (p1.coord[i] - p2.coord[i])*(p1.coord[i] - p2.coord[i]);
    2e10:	44 0f 10 1c 08       	movups (%rax,%rcx,1),%xmm11
    2e15:	44 0f 10 14 0a       	movups (%rdx,%rcx,1),%xmm10
    2e1a:	41 83 c2 04          	add    $0x4,%r10d
    2e1e:	44 0f 10 7c 0a 10    	movups 0x10(%rdx,%rcx,1),%xmm15
    2e24:	0f 10 7c 08 10       	movups 0x10(%rax,%rcx,1),%xmm7
    2e29:	45 0f 5c d3          	subps  %xmm11,%xmm10
    2e2d:	0f 10 4c 0a 20       	movups 0x20(%rdx,%rcx,1),%xmm1
    2e32:	0f 10 74 08 20       	movups 0x20(%rax,%rcx,1),%xmm6
    2e37:	44 0f 5c ff          	subps  %xmm7,%xmm15
    2e3b:	44 0f 10 5c 08 30    	movups 0x30(%rax,%rcx,1),%xmm11
    2e41:	0f 5c ce             	subps  %xmm6,%xmm1
    2e44:	45 0f 59 d2          	mulps  %xmm10,%xmm10
    2e48:	45 0f 59 ff          	mulps  %xmm15,%xmm15
    2e4c:	0f 59 c9             	mulps  %xmm1,%xmm1
    2e4f:	f3 41 0f 58 c2       	addss  %xmm10,%xmm0
    2e54:	45 0f 28 ea          	movaps %xmm10,%xmm13
    2e58:	45 0f 28 f2          	movaps %xmm10,%xmm14
    2e5c:	45 0f c6 ea 55       	shufps $0x55,%xmm10,%xmm13
    2e61:	45 0f 15 f2          	unpckhps %xmm10,%xmm14
    2e65:	41 0f 28 df          	movaps %xmm15,%xmm3
    2e69:	41 0f 28 e7          	movaps %xmm15,%xmm4
    2e6d:	45 0f c6 d2 ff       	shufps $0xff,%xmm10,%xmm10
    2e72:	41 0f 15 e7          	unpckhps %xmm15,%xmm4
    2e76:	44 0f 28 c1          	movaps %xmm1,%xmm8
    2e7a:	44 0f 28 c9          	movaps %xmm1,%xmm9
    2e7e:	f3 41 0f 58 c5       	addss  %xmm13,%xmm0
    2e83:	41 0f c6 df 55       	shufps $0x55,%xmm15,%xmm3
    2e88:	44 0f c6 c1 55       	shufps $0x55,%xmm1,%xmm8
    2e8d:	44 0f 15 c9          	unpckhps %xmm1,%xmm9
    2e91:	f3 41 0f 58 c6       	addss  %xmm14,%xmm0
    2e96:	f3 41 0f 58 c2       	addss  %xmm10,%xmm0
    2e9b:	44 0f 10 54 0a 30    	movups 0x30(%rdx,%rcx,1),%xmm10
    2ea1:	48 83 c1 40          	add    $0x40,%rcx
    2ea5:	45 0f 5c d3          	subps  %xmm11,%xmm10
    2ea9:	f3 41 0f 58 c7       	addss  %xmm15,%xmm0
    2eae:	45 0f c6 ff ff       	shufps $0xff,%xmm15,%xmm15
    2eb3:	45 0f 59 d2          	mulps  %xmm10,%xmm10
    2eb7:	f3 0f 58 c3          	addss  %xmm3,%xmm0
    2ebb:	f3 0f 58 c4          	addss  %xmm4,%xmm0
    2ebf:	45 0f 28 ea          	movaps %xmm10,%xmm13
    2ec3:	45 0f 28 f2          	movaps %xmm10,%xmm14
    2ec7:	45 0f c6 ea 55       	shufps $0x55,%xmm10,%xmm13
    2ecc:	45 0f 15 f2          	unpckhps %xmm10,%xmm14
    2ed0:	f3 41 0f 58 c7       	addss  %xmm15,%xmm0
    2ed5:	f3 0f 58 c1          	addss  %xmm1,%xmm0
    2ed9:	0f c6 c9 ff          	shufps $0xff,%xmm1,%xmm1
    2edd:	f3 41 0f 58 c0       	addss  %xmm8,%xmm0
    2ee2:	f3 41 0f 58 c1       	addss  %xmm9,%xmm0
    2ee7:	f3 0f 58 c1          	addss  %xmm1,%xmm0
    2eeb:	f3 41 0f 58 c2       	addss  %xmm10,%xmm0
    2ef0:	45 0f c6 d2 ff       	shufps $0xff,%xmm10,%xmm10
    2ef5:	f3 41 0f 58 c5       	addss  %xmm13,%xmm0
    2efa:	f3 41 0f 58 c6       	addss  %xmm14,%xmm0
    2eff:	f3 41 0f 58 c2       	addss  %xmm10,%xmm0
  for (i=0;i<dim;i++)
    2f04:	44 39 d6             	cmp    %r10d,%esi
    2f07:	0f 87 03 ff ff ff    	ja     2e10 <_Z4dist5PointS_i+0x240>
    2f0d:	89 f8                	mov    %edi,%eax
    2f0f:	83 e0 fc             	and    $0xfffffffc,%eax
    2f12:	39 f8                	cmp    %edi,%eax
    2f14:	74 54                	je     2f6a <_Z4dist5PointS_i+0x39a>
    result += (p1.coord[i] - p2.coord[i])*(p1.coord[i] - p2.coord[i]);
    2f16:	48 63 f0             	movslq %eax,%rsi
  for (i=0;i<dim;i++)
    2f19:	8d 50 01             	lea    0x1(%rax),%edx
    result += (p1.coord[i] - p2.coord[i])*(p1.coord[i] - p2.coord[i]);
    2f1c:	f3 45 0f 10 3c b1    	movss  (%r9,%rsi,4),%xmm15
    2f22:	f3 45 0f 5c 3c b0    	subss  (%r8,%rsi,4),%xmm15
    2f28:	f3 45 0f 59 ff       	mulss  %xmm15,%xmm15
    2f2d:	f3 41 0f 58 c7       	addss  %xmm15,%xmm0
  for (i=0;i<dim;i++)
    2f32:	39 d7                	cmp    %edx,%edi
    2f34:	7e 34                	jle    2f6a <_Z4dist5PointS_i+0x39a>
    result += (p1.coord[i] - p2.coord[i])*(p1.coord[i] - p2.coord[i]);
    2f36:	48 63 da             	movslq %edx,%rbx
  for (i=0;i<dim;i++)
    2f39:	83 c0 02             	add    $0x2,%eax
    result += (p1.coord[i] - p2.coord[i])*(p1.coord[i] - p2.coord[i]);
    2f3c:	f3 41 0f 10 3c 99    	movss  (%r9,%rbx,4),%xmm7
    2f42:	f3 41 0f 5c 3c 98    	subss  (%r8,%rbx,4),%xmm7
    2f48:	f3 0f 59 ff          	mulss  %xmm7,%xmm7
    2f4c:	f3 0f 58 c7          	addss  %xmm7,%xmm0
  for (i=0;i<dim;i++)
    2f50:	39 c7                	cmp    %eax,%edi
    2f52:	7e 16                	jle    2f6a <_Z4dist5PointS_i+0x39a>
    result += (p1.coord[i] - p2.coord[i])*(p1.coord[i] - p2.coord[i]);
    2f54:	48 98                	cltq   
    2f56:	f3 41 0f 10 14 81    	movss  (%r9,%rax,4),%xmm2
    2f5c:	f3 41 0f 5c 14 80    	subss  (%r8,%rax,4),%xmm2
    2f62:	f3 0f 59 d2          	mulss  %xmm2,%xmm2
    2f66:	f3 0f 58 c2          	addss  %xmm2,%xmm0
}
    2f6a:	5b                   	pop    %rbx
    2f6b:	c3                   	retq   
    2f6c:	0f 1f 40 00          	nopl   0x0(%rax)
  float result=0.0;
    2f70:	66 0f ef c0          	pxor   %xmm0,%xmm0
}
    2f74:	5b                   	pop    %rbx
    2f75:	c3                   	retq   
  float result=0.0;
    2f76:	66 0f ef c0          	pxor   %xmm0,%xmm0
  for (i=0;i<dim;i++)
    2f7a:	31 c0                	xor    %eax,%eax
    2f7c:	eb 98                	jmp    2f16 <_Z4dist5PointS_i+0x346>
    2f7e:	4c 89 c0             	mov    %r8,%rax
    2f81:	4c 89 ca             	mov    %r9,%rdx
    2f84:	66 0f ef c9          	pxor   %xmm1,%xmm1
    2f88:	31 db                	xor    %ebx,%ebx
    2f8a:	e9 84 fd ff ff       	jmpq   2d13 <_Z4dist5PointS_i+0x143>
    result += (p1.coord[i] - p2.coord[i])*(p1.coord[i] - p2.coord[i]);
    2f8f:	44 0f 10 52 10       	movups 0x10(%rdx),%xmm10
    2f94:	44 0f 10 58 10       	movups 0x10(%rax),%xmm11
    2f99:	b9 20 00 00 00       	mov    $0x20,%ecx
    2f9e:	44 8d 53 02          	lea    0x2(%rbx),%r10d
    2fa2:	45 0f 5c d3          	subps  %xmm11,%xmm10
    2fa6:	45 0f 59 d2          	mulps  %xmm10,%xmm10
    2faa:	f3 41 0f 58 c2       	addss  %xmm10,%xmm0
    2faf:	45 0f 28 ea          	movaps %xmm10,%xmm13
    2fb3:	45 0f 28 f2          	movaps %xmm10,%xmm14
    2fb7:	45 0f c6 ea 55       	shufps $0x55,%xmm10,%xmm13
    2fbc:	45 0f 15 f2          	unpckhps %xmm10,%xmm14
    2fc0:	45 0f c6 d2 ff       	shufps $0xff,%xmm10,%xmm10
    2fc5:	f3 41 0f 58 c5       	addss  %xmm13,%xmm0
    2fca:	f3 44 0f 58 f0       	addss  %xmm0,%xmm14
    2fcf:	41 0f 28 c2          	movaps %xmm10,%xmm0
    2fd3:	f3 41 0f 58 c6       	addss  %xmm14,%xmm0
  for (i=0;i<dim;i++)
    2fd8:	e9 a4 fd ff ff       	jmpq   2d81 <_Z4dist5PointS_i+0x1b1>
    2fdd:	0f 1f 00             	nopl   (%rax)

0000000000002fe0 <_Z7pspeedyP6PointsfPliP16parsec_barrier_t>:
{
    2fe0:	f3 0f 1e fa          	endbr64 
    2fe4:	41 57                	push   %r15
    2fe6:	41 56                	push   %r14
    2fe8:	49 89 fe             	mov    %rdi,%r14
    2feb:	41 55                	push   %r13
    2fed:	41 54                	push   %r12
    2fef:	55                   	push   %rbp
    2ff0:	53                   	push   %rbx
    2ff1:	89 d3                	mov    %edx,%ebx
    2ff3:	48 83 ec 78          	sub    $0x78,%rsp
    2ff7:	48 89 7c 24 20       	mov    %rdi,0x20(%rsp)
    2ffc:	48 89 cf             	mov    %rcx,%rdi
    2fff:	48 89 74 24 60       	mov    %rsi,0x60(%rsp)
    3004:	89 54 24 5c          	mov    %edx,0x5c(%rsp)
    3008:	48 89 4c 24 30       	mov    %rcx,0x30(%rsp)
    300d:	f3 0f 11 44 24 58    	movss  %xmm0,0x58(%rsp)
  pthread_barrier_wait(barrier);
    3013:	e8 38 81 00 00       	callq  b150 <_Z19parsec_barrier_waitP16parsec_barrier_t>
  long bsize = points->num/nproc;
    3018:	48 63 05 e9 c0 00 00 	movslq 0xc0e9(%rip),%rax        # f108 <_ZL5nproc>
    301f:	49 8b 36             	mov    (%r14),%rsi
  long k1 = bsize * pid;
    3022:	48 63 fb             	movslq %ebx,%rdi
    3025:	48 89 fd             	mov    %rdi,%rbp
    3028:	48 89 7c 24 68       	mov    %rdi,0x68(%rsp)
  long bsize = points->num/nproc;
    302d:	48 89 c1             	mov    %rax,%rcx
    3030:	48 89 44 24 18       	mov    %rax,0x18(%rsp)
    3035:	48 89 f0             	mov    %rsi,%rax
    3038:	48 99                	cqto   
    303a:	48 f7 f9             	idiv   %rcx
  if( pid == nproc-1 ) k2 = points->num;
    303d:	83 e9 01             	sub    $0x1,%ecx
  long k1 = bsize * pid;
    3040:	48 0f af e8          	imul   %rax,%rbp
  long k2 = k1 + bsize;
    3044:	48 01 e8             	add    %rbp,%rax
    3047:	39 f9                	cmp    %edi,%ecx
  for( int k = k1; k < k2; k++ )    {
    3049:	4c 63 c5             	movslq %ebp,%r8
  long k2 = k1 + bsize;
    304c:	48 0f 45 f0          	cmovne %rax,%rsi
  for( int k = k1; k < k2; k++ )    {
    3050:	4c 89 44 24 38       	mov    %r8,0x38(%rsp)
  long k2 = k1 + bsize;
    3055:	48 89 74 24 28       	mov    %rsi,0x28(%rsp)
  for( int k = k1; k < k2; k++ )    {
    305a:	4c 39 c6             	cmp    %r8,%rsi
    305d:	0f 8e 16 04 00 00    	jle    3479 <_Z7pspeedyP6PointsfPliP16parsec_barrier_t+0x499>
    float distance = dist(points->p[k],points->p[0],points->dim);
    3063:	4c 8b 5c 24 20       	mov    0x20(%rsp),%r11
    3068:	4c 8b 64 24 38       	mov    0x38(%rsp),%r12
    306d:	49 89 f2             	mov    %rsi,%r10
    3070:	49 c1 e2 05          	shl    $0x5,%r10
    3074:	45 8b 4b 08          	mov    0x8(%r11),%r9d
    3078:	49 8b 6b 10          	mov    0x10(%r11),%rbp
    307c:	49 c1 e4 05          	shl    $0x5,%r12
    3080:	45 89 cb             	mov    %r9d,%r11d
    3083:	4a 8d 44 25 48       	lea    0x48(%rbp,%r12,1),%rax
    3088:	4e 8d 74 15 48       	lea    0x48(%rbp,%r10,1),%r14
    308d:	41 c1 eb 02          	shr    $0x2,%r11d
    3091:	45 8d 79 ff          	lea    -0x1(%r9),%r15d
    3095:	45 8d 6b fb          	lea    -0x5(%r11),%r13d
    3099:	41 83 e5 fc          	and    $0xfffffffc,%r13d
    309d:	41 8d 5d 04          	lea    0x4(%r13),%ebx
    30a1:	89 5c 24 10          	mov    %ebx,0x10(%rsp)
    30a5:	44 89 cb             	mov    %r9d,%ebx
    30a8:	83 e3 fc             	and    $0xfffffffc,%ebx
    30ab:	0f 1f 44 00 00       	nopl   0x0(%rax,%rax,1)
    30b0:	0f 18 08             	prefetcht0 (%rax)
    30b3:	48 8b 78 c0          	mov    -0x40(%rax),%rdi
    30b7:	4c 8b 45 08          	mov    0x8(%rbp),%r8
  for (i=0;i<dim;i++)
    30bb:	45 85 c9             	test   %r9d,%r9d
    30be:	0f 8e de 08 00 00    	jle    39a2 <_Z7pspeedyP6PointsfPliP16parsec_barrier_t+0x9c2>
    30c4:	41 83 ff 02          	cmp    $0x2,%r15d
    30c8:	0f 86 dd 08 00 00    	jbe    39ab <_Z7pspeedyP6PointsfPliP16parsec_barrier_t+0x9cb>
    30ce:	4c 89 c2             	mov    %r8,%rdx
    30d1:	48 89 f9             	mov    %rdi,%rcx
    30d4:	41 83 fb 04          	cmp    $0x4,%r11d
    30d8:	0f 86 d8 08 00 00    	jbe    39b6 <_Z7pspeedyP6PointsfPliP16parsec_barrier_t+0x9d6>
    30de:	31 f6                	xor    %esi,%esi
  float result=0.0;
    30e0:	66 0f ef c0          	pxor   %xmm0,%xmm0
    30e4:	eb 0d                	jmp    30f3 <_Z7pspeedyP6PointsfPliP16parsec_barrier_t+0x113>
    30e6:	66 2e 0f 1f 84 00 00 	nopw   %cs:0x0(%rax,%rax,1)
    30ed:	00 00 00 
    result += (p1.coord[i] - p2.coord[i])*(p1.coord[i] - p2.coord[i]);
    30f0:	44 89 d6             	mov    %r10d,%esi
    30f3:	0f 10 19             	movups (%rcx),%xmm3
    30f6:	0f 10 3a             	movups (%rdx),%xmm7
    30f9:	0f 18 89 00 01 00 00 	prefetcht0 0x100(%rcx)
    3100:	0f 18 8a 00 01 00 00 	prefetcht0 0x100(%rdx)
    3107:	0f 10 49 10          	movups 0x10(%rcx),%xmm1
    310b:	0f 10 6a 10          	movups 0x10(%rdx),%xmm5
    310f:	48 83 c1 40          	add    $0x40,%rcx
    3113:	48 83 c2 40          	add    $0x40,%rdx
    3117:	0f 5c df             	subps  %xmm7,%xmm3
    311a:	44 0f 10 51 e0       	movups -0x20(%rcx),%xmm10
    311f:	44 0f 10 5a e0       	movups -0x20(%rdx),%xmm11
    3124:	44 8d 56 04          	lea    0x4(%rsi),%r10d
    3128:	0f 5c cd             	subps  %xmm5,%xmm1
    312b:	44 0f 10 79 f0       	movups -0x10(%rcx),%xmm15
    3130:	45 0f 5c d3          	subps  %xmm11,%xmm10
    3134:	0f 59 db             	mulps  %xmm3,%xmm3
    3137:	0f 59 c9             	mulps  %xmm1,%xmm1
    313a:	45 0f 59 d2          	mulps  %xmm10,%xmm10
    313e:	f3 0f 58 c3          	addss  %xmm3,%xmm0
    3142:	0f 28 e3             	movaps %xmm3,%xmm4
    3145:	0f c6 e3 55          	shufps $0x55,%xmm3,%xmm4
    3149:	44 0f 28 c1          	movaps %xmm1,%xmm8
    314d:	44 0f 28 c9          	movaps %xmm1,%xmm9
    3151:	44 0f c6 c1 55       	shufps $0x55,%xmm1,%xmm8
    3156:	44 0f 15 c9          	unpckhps %xmm1,%xmm9
    315a:	45 0f 28 ea          	movaps %xmm10,%xmm13
    315e:	45 0f 28 f2          	movaps %xmm10,%xmm14
    3162:	f3 0f 58 e0          	addss  %xmm0,%xmm4
    3166:	0f 28 c3             	movaps %xmm3,%xmm0
    3169:	45 0f c6 ea 55       	shufps $0x55,%xmm10,%xmm13
    316e:	45 0f 15 f2          	unpckhps %xmm10,%xmm14
    3172:	0f 15 c3             	unpckhps %xmm3,%xmm0
    3175:	0f c6 db ff          	shufps $0xff,%xmm3,%xmm3
    3179:	f3 0f 58 c4          	addss  %xmm4,%xmm0
    317d:	f3 0f 58 c3          	addss  %xmm3,%xmm0
    3181:	0f 10 5a f0          	movups -0x10(%rdx),%xmm3
    3185:	44 0f 5c fb          	subps  %xmm3,%xmm15
    3189:	f3 0f 58 c1          	addss  %xmm1,%xmm0
    318d:	0f c6 c9 ff          	shufps $0xff,%xmm1,%xmm1
    3191:	45 0f 59 ff          	mulps  %xmm15,%xmm15
    3195:	f3 41 0f 58 c0       	addss  %xmm8,%xmm0
    319a:	f3 41 0f 58 c1       	addss  %xmm9,%xmm0
    319f:	41 0f 28 d7          	movaps %xmm15,%xmm2
    31a3:	41 0f 28 e7          	movaps %xmm15,%xmm4
    31a7:	41 0f c6 d7 55       	shufps $0x55,%xmm15,%xmm2
    31ac:	41 0f 15 e7          	unpckhps %xmm15,%xmm4
    31b0:	f3 0f 58 c1          	addss  %xmm1,%xmm0
    31b4:	f3 41 0f 58 c2       	addss  %xmm10,%xmm0
    31b9:	45 0f c6 d2 ff       	shufps $0xff,%xmm10,%xmm10
    31be:	f3 41 0f 58 c5       	addss  %xmm13,%xmm0
    31c3:	f3 41 0f 58 c6       	addss  %xmm14,%xmm0
    31c8:	f3 41 0f 58 c2       	addss  %xmm10,%xmm0
    31cd:	f3 41 0f 58 c7       	addss  %xmm15,%xmm0
    31d2:	45 0f c6 ff ff       	shufps $0xff,%xmm15,%xmm15
    31d7:	f3 0f 58 c2          	addss  %xmm2,%xmm0
    31db:	f3 0f 58 c4          	addss  %xmm4,%xmm0
    31df:	f3 41 0f 58 c7       	addss  %xmm15,%xmm0
  for (i=0;i<dim;i++)
    31e4:	44 39 ee             	cmp    %r13d,%esi
    31e7:	0f 85 03 ff ff ff    	jne    30f0 <_Z7pspeedyP6PointsfPliP16parsec_barrier_t+0x110>
    result += (p1.coord[i] - p2.coord[i])*(p1.coord[i] - p2.coord[i]);
    31ed:	44 8b 64 24 10       	mov    0x10(%rsp),%r12d
    31f2:	44 89 64 24 0c       	mov    %r12d,0xc(%rsp)
    31f7:	0f 10 09             	movups (%rcx),%xmm1
    31fa:	0f 10 2a             	movups (%rdx),%xmm5
    31fd:	be 10 00 00 00       	mov    $0x10,%esi
    3202:	44 8b 54 24 0c       	mov    0xc(%rsp),%r10d
    3207:	0f 5c cd             	subps  %xmm5,%xmm1
    320a:	45 89 d4             	mov    %r10d,%r12d
    320d:	41 83 c2 01          	add    $0x1,%r10d
    3211:	41 f7 d4             	not    %r12d
    3214:	0f 59 c9             	mulps  %xmm1,%xmm1
    3217:	45 01 dc             	add    %r11d,%r12d
    321a:	41 83 e4 03          	and    $0x3,%r12d
    321e:	f3 0f 58 c1          	addss  %xmm1,%xmm0
    3222:	44 0f 28 c1          	movaps %xmm1,%xmm8
    3226:	44 0f 28 c9          	movaps %xmm1,%xmm9
    322a:	44 0f c6 c1 55       	shufps $0x55,%xmm1,%xmm8
    322f:	44 0f 15 c9          	unpckhps %xmm1,%xmm9
    3233:	0f c6 c9 ff          	shufps $0xff,%xmm1,%xmm1
    3237:	f3 41 0f 58 c0       	addss  %xmm8,%xmm0
    323c:	f3 41 0f 58 c1       	addss  %xmm9,%xmm0
    3241:	f3 0f 58 c1          	addss  %xmm1,%xmm0
  for (i=0;i<dim;i++)
    3245:	45 39 d3             	cmp    %r10d,%r11d
    3248:	0f 86 a7 01 00 00    	jbe    33f5 <_Z7pspeedyP6PointsfPliP16parsec_barrier_t+0x415>
    324e:	45 85 e4             	test   %r12d,%r12d
    3251:	0f 84 a1 00 00 00    	je     32f8 <_Z7pspeedyP6PointsfPliP16parsec_barrier_t+0x318>
    3257:	41 83 fc 01          	cmp    $0x1,%r12d
    325b:	74 4e                	je     32ab <_Z7pspeedyP6PointsfPliP16parsec_barrier_t+0x2cb>
    325d:	41 83 fc 02          	cmp    $0x2,%r12d
    3261:	0f 85 e9 0c 00 00    	jne    3f50 <_Z7pspeedyP6PointsfPliP16parsec_barrier_t+0xf70>
    result += (p1.coord[i] - p2.coord[i])*(p1.coord[i] - p2.coord[i]);
    3267:	44 0f 10 3c 31       	movups (%rcx,%rsi,1),%xmm15
    326c:	0f 10 1c 32          	movups (%rdx,%rsi,1),%xmm3
    3270:	41 83 c2 01          	add    $0x1,%r10d
    3274:	48 83 c6 10          	add    $0x10,%rsi
    3278:	44 0f 5c fb          	subps  %xmm3,%xmm15
    327c:	45 0f 59 ff          	mulps  %xmm15,%xmm15
    3280:	f3 41 0f 58 c7       	addss  %xmm15,%xmm0
    3285:	41 0f 28 d7          	movaps %xmm15,%xmm2
    3289:	41 0f 28 e7          	movaps %xmm15,%xmm4
    328d:	41 0f c6 d7 55       	shufps $0x55,%xmm15,%xmm2
    3292:	41 0f 15 e7          	unpckhps %xmm15,%xmm4
    3296:	45 0f c6 ff ff       	shufps $0xff,%xmm15,%xmm15
    329b:	f3 0f 58 c2          	addss  %xmm2,%xmm0
    329f:	f3 0f 58 e0          	addss  %xmm0,%xmm4
    32a3:	41 0f 28 c7          	movaps %xmm15,%xmm0
    32a7:	f3 0f 58 c4          	addss  %xmm4,%xmm0
    32ab:	0f 10 0c 31          	movups (%rcx,%rsi,1),%xmm1
    32af:	0f 10 2c 32          	movups (%rdx,%rsi,1),%xmm5
    32b3:	41 83 c2 01          	add    $0x1,%r10d
    32b7:	48 83 c6 10          	add    $0x10,%rsi
    32bb:	0f 5c cd             	subps  %xmm5,%xmm1
    32be:	0f 59 c9             	mulps  %xmm1,%xmm1
    32c1:	f3 0f 58 c1          	addss  %xmm1,%xmm0
    32c5:	44 0f 28 c1          	movaps %xmm1,%xmm8
    32c9:	44 0f 28 c9          	movaps %xmm1,%xmm9
    32cd:	44 0f c6 c1 55       	shufps $0x55,%xmm1,%xmm8
    32d2:	44 0f 15 c9          	unpckhps %xmm1,%xmm9
    32d6:	0f c6 c9 ff          	shufps $0xff,%xmm1,%xmm1
    32da:	f3 41 0f 58 c0       	addss  %xmm8,%xmm0
    32df:	f3 44 0f 58 c8       	addss  %xmm0,%xmm9
    32e4:	0f 28 c1             	movaps %xmm1,%xmm0
    32e7:	f3 41 0f 58 c1       	addss  %xmm9,%xmm0
  for (i=0;i<dim;i++)
    32ec:	45 39 d3             	cmp    %r10d,%r11d
    32ef:	0f 86 00 01 00 00    	jbe    33f5 <_Z7pspeedyP6PointsfPliP16parsec_barrier_t+0x415>
    32f5:	0f 1f 00             	nopl   (%rax)
    result += (p1.coord[i] - p2.coord[i])*(p1.coord[i] - p2.coord[i]);
    32f8:	44 0f 10 1c 32       	movups (%rdx,%rsi,1),%xmm11
    32fd:	44 0f 10 14 31       	movups (%rcx,%rsi,1),%xmm10
    3302:	41 83 c2 04          	add    $0x4,%r10d
    3306:	44 0f 10 7c 31 10    	movups 0x10(%rcx,%rsi,1),%xmm15
    330c:	0f 10 5c 32 10       	movups 0x10(%rdx,%rsi,1),%xmm3
    3311:	45 0f 5c d3          	subps  %xmm11,%xmm10
    3315:	0f 10 4c 31 20       	movups 0x20(%rcx,%rsi,1),%xmm1
    331a:	0f 10 6c 32 20       	movups 0x20(%rdx,%rsi,1),%xmm5
    331f:	44 0f 5c fb          	subps  %xmm3,%xmm15
    3323:	44 0f 10 5c 32 30    	movups 0x30(%rdx,%rsi,1),%xmm11
    3329:	0f 5c cd             	subps  %xmm5,%xmm1
    332c:	45 0f 59 d2          	mulps  %xmm10,%xmm10
    3330:	45 0f 59 ff          	mulps  %xmm15,%xmm15
    3334:	0f 59 c9             	mulps  %xmm1,%xmm1
    3337:	f3 41 0f 58 c2       	addss  %xmm10,%xmm0
    333c:	45 0f 28 ea          	movaps %xmm10,%xmm13
    3340:	45 0f 28 f2          	movaps %xmm10,%xmm14
    3344:	45 0f c6 ea 55       	shufps $0x55,%xmm10,%xmm13
    3349:	45 0f 15 f2          	unpckhps %xmm10,%xmm14
    334d:	41 0f 28 d7          	movaps %xmm15,%xmm2
    3351:	41 0f 28 e7          	movaps %xmm15,%xmm4
    3355:	45 0f c6 d2 ff       	shufps $0xff,%xmm10,%xmm10
    335a:	41 0f 15 e7          	unpckhps %xmm15,%xmm4
    335e:	44 0f 28 c1          	movaps %xmm1,%xmm8
    3362:	44 0f 28 c9          	movaps %xmm1,%xmm9
    3366:	f3 41 0f 58 c5       	addss  %xmm13,%xmm0
    336b:	41 0f c6 d7 55       	shufps $0x55,%xmm15,%xmm2
    3370:	44 0f c6 c1 55       	shufps $0x55,%xmm1,%xmm8
    3375:	44 0f 15 c9          	unpckhps %xmm1,%xmm9
    3379:	f3 41 0f 58 c6       	addss  %xmm14,%xmm0
    337e:	f3 41 0f 58 c2       	addss  %xmm10,%xmm0
    3383:	44 0f 10 54 31 30    	movups 0x30(%rcx,%rsi,1),%xmm10
    3389:	48 83 c6 40          	add    $0x40,%rsi
    338d:	45 0f 5c d3          	subps  %xmm11,%xmm10
    3391:	f3 41 0f 58 c7       	addss  %xmm15,%xmm0
    3396:	45 0f c6 ff ff       	shufps $0xff,%xmm15,%xmm15
    339b:	45 0f 59 d2          	mulps  %xmm10,%xmm10
    339f:	f3 0f 58 c2          	addss  %xmm2,%xmm0
    33a3:	f3 0f 58 c4          	addss  %xmm4,%xmm0
    33a7:	45 0f 28 ea          	movaps %xmm10,%xmm13
    33ab:	45 0f 28 f2          	movaps %xmm10,%xmm14
    33af:	45 0f c6 ea 55       	shufps $0x55,%xmm10,%xmm13
    33b4:	45 0f 15 f2          	unpckhps %xmm10,%xmm14
    33b8:	f3 41 0f 58 c7       	addss  %xmm15,%xmm0
    33bd:	f3 0f 58 c1          	addss  %xmm1,%xmm0
    33c1:	0f c6 c9 ff          	shufps $0xff,%xmm1,%xmm1
    33c5:	f3 41 0f 58 c0       	addss  %xmm8,%xmm0
    33ca:	f3 41 0f 58 c1       	addss  %xmm9,%xmm0
    33cf:	f3 0f 58 c1          	addss  %xmm1,%xmm0
    33d3:	f3 41 0f 58 c2       	addss  %xmm10,%xmm0
    33d8:	45 0f c6 d2 ff       	shufps $0xff,%xmm10,%xmm10
    33dd:	f3 41 0f 58 c5       	addss  %xmm13,%xmm0
    33e2:	f3 41 0f 58 c6       	addss  %xmm14,%xmm0
    33e7:	f3 41 0f 58 c2       	addss  %xmm10,%xmm0
  for (i=0;i<dim;i++)
    33ec:	45 39 d3             	cmp    %r10d,%r11d
    33ef:	0f 87 03 ff ff ff    	ja     32f8 <_Z7pspeedyP6PointsfPliP16parsec_barrier_t+0x318>
    33f5:	89 de                	mov    %ebx,%esi
    33f7:	44 39 cb             	cmp    %r9d,%ebx
    33fa:	74 56                	je     3452 <_Z7pspeedyP6PointsfPliP16parsec_barrier_t+0x472>
    result += (p1.coord[i] - p2.coord[i])*(p1.coord[i] - p2.coord[i]);
    33fc:	48 63 d6             	movslq %esi,%rdx
  for (i=0;i<dim;i++)
    33ff:	8d 4e 01             	lea    0x1(%rsi),%ecx
    result += (p1.coord[i] - p2.coord[i])*(p1.coord[i] - p2.coord[i]);
    3402:	f3 44 0f 10 3c 97    	movss  (%rdi,%rdx,4),%xmm15
    3408:	f3 45 0f 5c 3c 90    	subss  (%r8,%rdx,4),%xmm15
    340e:	f3 45 0f 59 ff       	mulss  %xmm15,%xmm15
    3413:	f3 41 0f 58 c7       	addss  %xmm15,%xmm0
  for (i=0;i<dim;i++)
    3418:	41 39 c9             	cmp    %ecx,%r9d
    341b:	7e 35                	jle    3452 <_Z7pspeedyP6PointsfPliP16parsec_barrier_t+0x472>
    result += (p1.coord[i] - p2.coord[i])*(p1.coord[i] - p2.coord[i]);
    341d:	4c 63 e1             	movslq %ecx,%r12
  for (i=0;i<dim;i++)
    3420:	83 c6 02             	add    $0x2,%esi
    result += (p1.coord[i] - p2.coord[i])*(p1.coord[i] - p2.coord[i]);
    3423:	f3 42 0f 10 1c a7    	movss  (%rdi,%r12,4),%xmm3
    3429:	f3 43 0f 5c 1c a0    	subss  (%r8,%r12,4),%xmm3
    342f:	f3 0f 59 db          	mulss  %xmm3,%xmm3
    3433:	f3 0f 58 c3          	addss  %xmm3,%xmm0
  for (i=0;i<dim;i++)
    3437:	41 39 f1             	cmp    %esi,%r9d
    343a:	7e 16                	jle    3452 <_Z7pspeedyP6PointsfPliP16parsec_barrier_t+0x472>
    result += (p1.coord[i] - p2.coord[i])*(p1.coord[i] - p2.coord[i]);
    343c:	48 63 f6             	movslq %esi,%rsi
    343f:	f3 0f 10 3c b7       	movss  (%rdi,%rsi,4),%xmm7
    3444:	f3 41 0f 5c 3c b0    	subss  (%r8,%rsi,4),%xmm7
    344a:	f3 0f 59 ff          	mulss  %xmm7,%xmm7
    344e:	f3 0f 58 c7          	addss  %xmm7,%xmm0
    points->p[k].cost = distance * points->p[k].weight;
    3452:	f3 0f 59 40 b8       	mulss  -0x48(%rax),%xmm0
    3457:	0f 18 48 f8          	prefetcht0 -0x8(%rax)
    345b:	0f 18 48 10          	prefetcht0 0x10(%rax)
    points->p[k].assign=0;
    345f:	48 c7 40 c8 00 00 00 	movq   $0x0,-0x38(%rax)
    3466:	00 
    3467:	48 83 c0 20          	add    $0x20,%rax
    points->p[k].cost = distance * points->p[k].weight;
    346b:	f3 0f 11 40 b0       	movss  %xmm0,-0x50(%rax)
  for( int k = k1; k < k2; k++ )    {
    3470:	4c 39 f0             	cmp    %r14,%rax
    3473:	0f 85 37 fc ff ff    	jne    30b0 <_Z7pspeedyP6PointsfPliP16parsec_barrier_t+0xd0>
  if( pid==0 )   {
    3479:	44 8b 54 24 5c       	mov    0x5c(%rsp),%r10d
    347e:	45 85 d2             	test   %r10d,%r10d
    3481:	0f 84 40 05 00 00    	je     39c7 <_Z7pspeedyP6PointsfPliP16parsec_barrier_t+0x9e7>
  pthread_barrier_wait(barrier);
    3487:	48 8b 7c 24 30       	mov    0x30(%rsp),%rdi
      pthread_mutex_lock(&mutex);
    348c:	4c 8d 35 2d bc 00 00 	lea    0xbc2d(%rip),%r14        # f0c0 <_ZZ7pspeedyP6PointsfPliP16parsec_barrier_tE5mutex>
  pthread_barrier_wait(barrier);
    3493:	e8 b8 7c 00 00       	callq  b150 <_Z19parsec_barrier_waitP16parsec_barrier_t>
  if( pid != 0 ) { // we are not the master threads. we wait until a center is opened.
    3498:	48 8b 44 24 38       	mov    0x38(%rsp),%rax
    349d:	48 8b 5c 24 28       	mov    0x28(%rsp),%rbx
    34a2:	48 c1 e0 05          	shl    $0x5,%rax
    34a6:	48 c1 e3 05          	shl    $0x5,%rbx
    34aa:	48 89 44 24 48       	mov    %rax,0x48(%rsp)
    34af:	48 89 5c 24 50       	mov    %rbx,0x50(%rsp)
    34b4:	0f 1f 40 00          	nopl   0x0(%rax)
      pthread_mutex_lock(&mutex);
    34b8:	4c 89 f7             	mov    %r14,%rdi
    34bb:	e8 e0 ef ff ff       	callq  24a0 <pthread_mutex_lock@plt>
      while(!open) pthread_cond_wait(&cond,&mutex);
    34c0:	80 3d 31 bc 00 00 00 	cmpb   $0x0,0xbc31(%rip)        # f0f8 <_ZZ7pspeedyP6PointsfPliP16parsec_barrier_tE4open>
    34c7:	75 1f                	jne    34e8 <_Z7pspeedyP6PointsfPliP16parsec_barrier_t+0x508>
    34c9:	0f 1f 80 00 00 00 00 	nopl   0x0(%rax)
    34d0:	4c 89 f6             	mov    %r14,%rsi
    34d3:	48 8d 3d a6 bb 00 00 	lea    0xbba6(%rip),%rdi        # f080 <_ZZ7pspeedyP6PointsfPliP16parsec_barrier_tE4cond>
    34da:	e8 f1 ef ff ff       	callq  24d0 <pthread_cond_wait@plt>
    34df:	80 3d 12 bc 00 00 00 	cmpb   $0x0,0xbc12(%rip)        # f0f8 <_ZZ7pspeedyP6PointsfPliP16parsec_barrier_tE4open>
    34e6:	74 e8                	je     34d0 <_Z7pspeedyP6PointsfPliP16parsec_barrier_t+0x4f0>
      pthread_mutex_unlock(&mutex);
    34e8:	4c 89 f7             	mov    %r14,%rdi
    34eb:	e8 70 ee ff ff       	callq  2360 <pthread_mutex_unlock@plt>
      if( i >= points->num ) break;
    34f0:	48 8b 7c 24 20       	mov    0x20(%rsp),%rdi
    34f5:	4c 63 3d ec bb 00 00 	movslq 0xbbec(%rip),%r15        # f0e8 <_ZZ7pspeedyP6PointsfPliP16parsec_barrier_tE1i>
    34fc:	4c 3b 3f             	cmp    (%rdi),%r15
    34ff:	0f 8d c5 0e 00 00    	jge    43ca <_Z7pspeedyP6PointsfPliP16parsec_barrier_t+0x13ea>
      for( int k = k1; k < k2; k++ )
    3505:	48 8b 6c 24 38       	mov    0x38(%rsp),%rbp
    350a:	48 39 6c 24 28       	cmp    %rbp,0x28(%rsp)
    350f:	0f 8e 51 04 00 00    	jle    3966 <_Z7pspeedyP6PointsfPliP16parsec_barrier_t+0x986>
	  float distance = dist(points->p[i],points->p[k],points->dim);
    3515:	44 8b 4f 08          	mov    0x8(%rdi),%r9d
    3519:	4c 8b 47 10          	mov    0x10(%rdi),%r8
    351d:	4d 89 fc             	mov    %r15,%r12
    3520:	4c 8b 5c 24 48       	mov    0x48(%rsp),%r11
    3525:	4c 8b 6c 24 50       	mov    0x50(%rsp),%r13
    352a:	49 c1 e4 05          	shl    $0x5,%r12
    352e:	41 8d 51 ff          	lea    -0x1(%r9),%edx
    3532:	44 89 cb             	mov    %r9d,%ebx
    3535:	4d 01 c4             	add    %r8,%r12
    3538:	4b 8d 74 18 48       	lea    0x48(%r8,%r11,1),%rsi
    353d:	45 89 cb             	mov    %r9d,%r11d
    3540:	89 54 24 0c          	mov    %edx,0xc(%rsp)
    3544:	4f 8d 6c 28 48       	lea    0x48(%r8,%r13,1),%r13
    3549:	41 c1 eb 02          	shr    $0x2,%r11d
    354d:	83 e3 fc             	and    $0xfffffffc,%ebx
    3550:	41 8d 4b fb          	lea    -0x5(%r11),%ecx
    3554:	83 e1 fc             	and    $0xfffffffc,%ecx
    3557:	89 4c 24 10          	mov    %ecx,0x10(%rsp)
    355b:	83 c1 04             	add    $0x4,%ecx
    355e:	89 4c 24 40          	mov    %ecx,0x40(%rsp)
    3562:	66 0f 1f 44 00 00    	nopw   0x0(%rax,%rax,1)
    3568:	49 8b 7c 24 08       	mov    0x8(%r12),%rdi
    356d:	0f 18 0e             	prefetcht0 (%rsi)
    3570:	4c 8b 46 c0          	mov    -0x40(%rsi),%r8
  for (i=0;i<dim;i++)
    3574:	45 85 c9             	test   %r9d,%r9d
    3577:	0f 8e 03 04 00 00    	jle    3980 <_Z7pspeedyP6PointsfPliP16parsec_barrier_t+0x9a0>
    357d:	83 7c 24 0c 02       	cmpl   $0x2,0xc(%rsp)
    3582:	0f 86 fe 03 00 00    	jbe    3986 <_Z7pspeedyP6PointsfPliP16parsec_barrier_t+0x9a6>
    3588:	4c 89 c0             	mov    %r8,%rax
    358b:	48 89 fa             	mov    %rdi,%rdx
    358e:	41 83 fb 04          	cmp    $0x4,%r11d
    3592:	0f 86 f9 03 00 00    	jbe    3991 <_Z7pspeedyP6PointsfPliP16parsec_barrier_t+0x9b1>
    3598:	31 c9                	xor    %ecx,%ecx
  float result=0.0;
    359a:	66 0f ef c9          	pxor   %xmm1,%xmm1
    359e:	eb 03                	jmp    35a3 <_Z7pspeedyP6PointsfPliP16parsec_barrier_t+0x5c3>
    result += (p1.coord[i] - p2.coord[i])*(p1.coord[i] - p2.coord[i]);
    35a0:	44 89 d1             	mov    %r10d,%ecx
    35a3:	0f 10 12             	movups (%rdx),%xmm2
    35a6:	0f 10 00             	movups (%rax),%xmm0
    35a9:	0f 18 8a 00 01 00 00 	prefetcht0 0x100(%rdx)
    35b0:	0f 18 88 00 01 00 00 	prefetcht0 0x100(%rax)
    35b7:	0f 10 70 10          	movups 0x10(%rax),%xmm6
    35bb:	0f 10 7a 30          	movups 0x30(%rdx),%xmm7
    35bf:	48 83 c0 40          	add    $0x40,%rax
    35c3:	48 83 c2 40          	add    $0x40,%rdx
    35c7:	0f 5c d0             	subps  %xmm0,%xmm2
    35ca:	44 0f 10 42 d0       	movups -0x30(%rdx),%xmm8
    35cf:	44 0f 10 62 e0       	movups -0x20(%rdx),%xmm12
    35d4:	44 8d 51 04          	lea    0x4(%rcx),%r10d
    35d8:	44 0f 10 68 e0       	movups -0x20(%rax),%xmm13
    35dd:	44 0f 5c c6          	subps  %xmm6,%xmm8
    35e1:	0f 59 d2             	mulps  %xmm2,%xmm2
    35e4:	45 0f 5c e5          	subps  %xmm13,%xmm12
    35e8:	45 0f 59 c0          	mulps  %xmm8,%xmm8
    35ec:	45 0f 59 e4          	mulps  %xmm12,%xmm12
    35f0:	f3 0f 58 ca          	addss  %xmm2,%xmm1
    35f4:	0f 28 ea             	movaps %xmm2,%xmm5
    35f7:	0f c6 ea 55          	shufps $0x55,%xmm2,%xmm5
    35fb:	45 0f 28 d0          	movaps %xmm8,%xmm10
    35ff:	45 0f 28 d8          	movaps %xmm8,%xmm11
    3603:	f3 0f 58 e9          	addss  %xmm1,%xmm5
    3607:	0f 28 ca             	movaps %xmm2,%xmm1
    360a:	45 0f c6 d0 55       	shufps $0x55,%xmm8,%xmm10
    360f:	45 0f 15 d8          	unpckhps %xmm8,%xmm11
    3613:	0f 15 ca             	unpckhps %xmm2,%xmm1
    3616:	0f c6 d2 ff          	shufps $0xff,%xmm2,%xmm2
    361a:	45 0f 28 fc          	movaps %xmm12,%xmm15
    361e:	41 0f 28 dc          	movaps %xmm12,%xmm3
    3622:	45 0f c6 fc 55       	shufps $0x55,%xmm12,%xmm15
    3627:	41 0f 15 dc          	unpckhps %xmm12,%xmm3
    362b:	f3 0f 58 cd          	addss  %xmm5,%xmm1
    362f:	f3 0f 58 ca          	addss  %xmm2,%xmm1
    3633:	0f 10 50 f0          	movups -0x10(%rax),%xmm2
    3637:	0f 5c fa             	subps  %xmm2,%xmm7
    363a:	f3 41 0f 58 c8       	addss  %xmm8,%xmm1
    363f:	45 0f c6 c0 ff       	shufps $0xff,%xmm8,%xmm8
    3644:	0f 59 ff             	mulps  %xmm7,%xmm7
    3647:	f3 41 0f 58 ca       	addss  %xmm10,%xmm1
    364c:	f3 41 0f 58 cb       	addss  %xmm11,%xmm1
    3651:	0f 28 e7             	movaps %xmm7,%xmm4
    3654:	0f 28 ef             	movaps %xmm7,%xmm5
    3657:	0f c6 e7 55          	shufps $0x55,%xmm7,%xmm4
    365b:	0f 15 ef             	unpckhps %xmm7,%xmm5
    365e:	f3 41 0f 58 c8       	addss  %xmm8,%xmm1
    3663:	f3 41 0f 58 cc       	addss  %xmm12,%xmm1
    3668:	45 0f c6 e4 ff       	shufps $0xff,%xmm12,%xmm12
    366d:	f3 41 0f 58 cf       	addss  %xmm15,%xmm1
    3672:	f3 0f 58 cb          	addss  %xmm3,%xmm1
    3676:	f3 41 0f 58 cc       	addss  %xmm12,%xmm1
    367b:	f3 0f 58 cf          	addss  %xmm7,%xmm1
    367f:	0f c6 ff ff          	shufps $0xff,%xmm7,%xmm7
    3683:	f3 0f 58 cc          	addss  %xmm4,%xmm1
    3687:	f3 0f 58 cd          	addss  %xmm5,%xmm1
    368b:	f3 0f 58 cf          	addss  %xmm7,%xmm1
  for (i=0;i<dim;i++)
    368f:	3b 4c 24 10          	cmp    0x10(%rsp),%ecx
    3693:	0f 85 07 ff ff ff    	jne    35a0 <_Z7pspeedyP6PointsfPliP16parsec_barrier_t+0x5c0>
    result += (p1.coord[i] - p2.coord[i])*(p1.coord[i] - p2.coord[i]);
    3699:	8b 6c 24 40          	mov    0x40(%rsp),%ebp
    369d:	89 6c 24 18          	mov    %ebp,0x18(%rsp)
    36a1:	44 0f 10 02          	movups (%rdx),%xmm8
    36a5:	0f 10 30             	movups (%rax),%xmm6
    36a8:	b9 10 00 00 00       	mov    $0x10,%ecx
    36ad:	44 8b 54 24 18       	mov    0x18(%rsp),%r10d
    36b2:	44 0f 5c c6          	subps  %xmm6,%xmm8
    36b6:	44 89 d5             	mov    %r10d,%ebp
    36b9:	41 83 c2 01          	add    $0x1,%r10d
    36bd:	f7 d5                	not    %ebp
    36bf:	45 0f 59 c0          	mulps  %xmm8,%xmm8
    36c3:	44 01 dd             	add    %r11d,%ebp
    36c6:	83 e5 03             	and    $0x3,%ebp
    36c9:	41 0f 28 c0          	movaps %xmm8,%xmm0
    36cd:	45 0f 28 c8          	movaps %xmm8,%xmm9
    36d1:	45 0f 28 d0          	movaps %xmm8,%xmm10
    36d5:	f3 0f 58 c1          	addss  %xmm1,%xmm0
    36d9:	45 0f c6 c8 55       	shufps $0x55,%xmm8,%xmm9
    36de:	45 0f 15 d0          	unpckhps %xmm8,%xmm10
    36e2:	45 0f c6 c0 ff       	shufps $0xff,%xmm8,%xmm8
    36e7:	f3 41 0f 58 c1       	addss  %xmm9,%xmm0
    36ec:	f3 41 0f 58 c2       	addss  %xmm10,%xmm0
    36f1:	f3 41 0f 58 c0       	addss  %xmm8,%xmm0
  for (i=0;i<dim;i++)
    36f6:	45 39 d3             	cmp    %r10d,%r11d
    36f9:	0f 86 e6 01 00 00    	jbe    38e5 <_Z7pspeedyP6PointsfPliP16parsec_barrier_t+0x905>
    36ff:	85 ed                	test   %ebp,%ebp
    3701:	0f 84 e9 00 00 00    	je     37f0 <_Z7pspeedyP6PointsfPliP16parsec_barrier_t+0x810>
    3707:	83 fd 01             	cmp    $0x1,%ebp
    370a:	0f 84 8d 00 00 00    	je     379d <_Z7pspeedyP6PointsfPliP16parsec_barrier_t+0x7bd>
    3710:	83 fd 02             	cmp    $0x2,%ebp
    3713:	74 4e                	je     3763 <_Z7pspeedyP6PointsfPliP16parsec_barrier_t+0x783>
    result += (p1.coord[i] - p2.coord[i])*(p1.coord[i] - p2.coord[i]);
    3715:	44 0f 10 5a 10       	movups 0x10(%rdx),%xmm11
    371a:	44 0f 10 60 10       	movups 0x10(%rax),%xmm12
    371f:	b9 20 00 00 00       	mov    $0x20,%ecx
    3724:	44 8b 54 24 18       	mov    0x18(%rsp),%r10d
    3729:	45 0f 5c dc          	subps  %xmm12,%xmm11
    372d:	41 83 c2 02          	add    $0x2,%r10d
    3731:	45 0f 59 db          	mulps  %xmm11,%xmm11
    3735:	f3 41 0f 58 c3       	addss  %xmm11,%xmm0
    373a:	45 0f 28 f3          	movaps %xmm11,%xmm14
    373e:	45 0f 28 fb          	movaps %xmm11,%xmm15
    3742:	45 0f c6 f3 55       	shufps $0x55,%xmm11,%xmm14
    3747:	45 0f 15 fb          	unpckhps %xmm11,%xmm15
    374b:	45 0f c6 db ff       	shufps $0xff,%xmm11,%xmm11
    3750:	f3 41 0f 58 c6       	addss  %xmm14,%xmm0
    3755:	f3 44 0f 58 f8       	addss  %xmm0,%xmm15
    375a:	41 0f 28 c3          	movaps %xmm11,%xmm0
    375e:	f3 41 0f 58 c7       	addss  %xmm15,%xmm0
    3763:	0f 10 1c 0a          	movups (%rdx,%rcx,1),%xmm3
    3767:	0f 10 3c 08          	movups (%rax,%rcx,1),%xmm7
    376b:	41 83 c2 01          	add    $0x1,%r10d
    376f:	48 83 c1 10          	add    $0x10,%rcx
    3773:	0f 5c df             	subps  %xmm7,%xmm3
    3776:	0f 59 db             	mulps  %xmm3,%xmm3
    3779:	f3 0f 58 c3          	addss  %xmm3,%xmm0
    377d:	0f 28 e3             	movaps %xmm3,%xmm4
    3780:	0f 28 eb             	movaps %xmm3,%xmm5
    3783:	0f c6 e3 55          	shufps $0x55,%xmm3,%xmm4
    3787:	0f 15 eb             	unpckhps %xmm3,%xmm5
    378a:	0f c6 db ff          	shufps $0xff,%xmm3,%xmm3
    378e:	f3 0f 58 c4          	addss  %xmm4,%xmm0
    3792:	f3 0f 58 e8          	addss  %xmm0,%xmm5
    3796:	0f 28 c3             	movaps %xmm3,%xmm0
    3799:	f3 0f 58 c5          	addss  %xmm5,%xmm0
    379d:	0f 10 0c 0a          	movups (%rdx,%rcx,1),%xmm1
    37a1:	44 0f 10 04 08       	movups (%rax,%rcx,1),%xmm8
    37a6:	41 83 c2 01          	add    $0x1,%r10d
    37aa:	48 83 c1 10          	add    $0x10,%rcx
    37ae:	41 0f 5c c8          	subps  %xmm8,%xmm1
    37b2:	0f 59 c9             	mulps  %xmm1,%xmm1
    37b5:	f3 0f 58 c1          	addss  %xmm1,%xmm0
    37b9:	44 0f 28 c9          	movaps %xmm1,%xmm9
    37bd:	44 0f 28 d1          	movaps %xmm1,%xmm10
    37c1:	44 0f c6 c9 55       	shufps $0x55,%xmm1,%xmm9
    37c6:	44 0f 15 d1          	unpckhps %xmm1,%xmm10
    37ca:	0f c6 c9 ff          	shufps $0xff,%xmm1,%xmm1
    37ce:	f3 41 0f 58 c1       	addss  %xmm9,%xmm0
    37d3:	f3 44 0f 58 d0       	addss  %xmm0,%xmm10
    37d8:	0f 28 c1             	movaps %xmm1,%xmm0
    37db:	f3 41 0f 58 c2       	addss  %xmm10,%xmm0
  for (i=0;i<dim;i++)
    37e0:	45 39 d3             	cmp    %r10d,%r11d
    37e3:	0f 86 fc 00 00 00    	jbe    38e5 <_Z7pspeedyP6PointsfPliP16parsec_barrier_t+0x905>
    37e9:	0f 1f 80 00 00 00 00 	nopl   0x0(%rax)
    result += (p1.coord[i] - p2.coord[i])*(p1.coord[i] - p2.coord[i]);
    37f0:	44 0f 10 24 08       	movups (%rax,%rcx,1),%xmm12
    37f5:	44 0f 10 1c 0a       	movups (%rdx,%rcx,1),%xmm11
    37fa:	41 83 c2 04          	add    $0x4,%r10d
    37fe:	0f 10 5c 0a 10       	movups 0x10(%rdx,%rcx,1),%xmm3
    3803:	0f 10 7c 08 10       	movups 0x10(%rax,%rcx,1),%xmm7
    3808:	45 0f 5c dc          	subps  %xmm12,%xmm11
    380c:	0f 10 4c 0a 20       	movups 0x20(%rdx,%rcx,1),%xmm1
    3811:	44 0f 10 44 08 20    	movups 0x20(%rax,%rcx,1),%xmm8
    3817:	0f 5c df             	subps  %xmm7,%xmm3
    381a:	44 0f 10 64 08 30    	movups 0x30(%rax,%rcx,1),%xmm12
    3820:	41 0f 5c c8          	subps  %xmm8,%xmm1
    3824:	45 0f 59 db          	mulps  %xmm11,%xmm11
    3828:	0f 59 db             	mulps  %xmm3,%xmm3
    382b:	0f 59 c9             	mulps  %xmm1,%xmm1
    382e:	f3 41 0f 58 c3       	addss  %xmm11,%xmm0
    3833:	45 0f 28 f3          	movaps %xmm11,%xmm14
    3837:	45 0f 28 fb          	movaps %xmm11,%xmm15
    383b:	45 0f c6 f3 55       	shufps $0x55,%xmm11,%xmm14
    3840:	45 0f 15 fb          	unpckhps %xmm11,%xmm15
    3844:	0f 28 e3             	movaps %xmm3,%xmm4
    3847:	0f 28 eb             	movaps %xmm3,%xmm5
    384a:	45 0f c6 db ff       	shufps $0xff,%xmm11,%xmm11
    384f:	0f c6 e3 55          	shufps $0x55,%xmm3,%xmm4
    3853:	0f 15 eb             	unpckhps %xmm3,%xmm5
    3856:	44 0f 28 c9          	movaps %xmm1,%xmm9
    385a:	f3 41 0f 58 c6       	addss  %xmm14,%xmm0
    385f:	44 0f c6 c9 55       	shufps $0x55,%xmm1,%xmm9
    3864:	44 0f 28 d1          	movaps %xmm1,%xmm10
    3868:	44 0f 15 d1          	unpckhps %xmm1,%xmm10
    386c:	f3 41 0f 58 c7       	addss  %xmm15,%xmm0
    3871:	f3 41 0f 58 c3       	addss  %xmm11,%xmm0
    3876:	44 0f 10 5c 0a 30    	movups 0x30(%rdx,%rcx,1),%xmm11
    387c:	48 83 c1 40          	add    $0x40,%rcx
    3880:	45 0f 5c dc          	subps  %xmm12,%xmm11
    3884:	f3 0f 58 c3          	addss  %xmm3,%xmm0
    3888:	0f c6 db ff          	shufps $0xff,%xmm3,%xmm3
    388c:	45 0f 59 db          	mulps  %xmm11,%xmm11
    3890:	f3 0f 58 c4          	addss  %xmm4,%xmm0
    3894:	f3 0f 58 c5          	addss  %xmm5,%xmm0
    3898:	45 0f 28 f3          	movaps %xmm11,%xmm14
    389c:	45 0f 28 fb          	movaps %xmm11,%xmm15
    38a0:	45 0f c6 f3 55       	shufps $0x55,%xmm11,%xmm14
    38a5:	45 0f 15 fb          	unpckhps %xmm11,%xmm15
    38a9:	f3 0f 58 c3          	addss  %xmm3,%xmm0
    38ad:	f3 0f 58 c1          	addss  %xmm1,%xmm0
    38b1:	0f c6 c9 ff          	shufps $0xff,%xmm1,%xmm1
    38b5:	f3 41 0f 58 c1       	addss  %xmm9,%xmm0
    38ba:	f3 41 0f 58 c2       	addss  %xmm10,%xmm0
    38bf:	f3 0f 58 c1          	addss  %xmm1,%xmm0
    38c3:	f3 41 0f 58 c3       	addss  %xmm11,%xmm0
    38c8:	45 0f c6 db ff       	shufps $0xff,%xmm11,%xmm11
    38cd:	f3 41 0f 58 c6       	addss  %xmm14,%xmm0
    38d2:	f3 41 0f 58 c7       	addss  %xmm15,%xmm0
    38d7:	f3 41 0f 58 c3       	addss  %xmm11,%xmm0
  for (i=0;i<dim;i++)
    38dc:	45 39 d3             	cmp    %r10d,%r11d
    38df:	0f 87 0b ff ff ff    	ja     37f0 <_Z7pspeedyP6PointsfPliP16parsec_barrier_t+0x810>
    38e5:	89 d8                	mov    %ebx,%eax
    38e7:	44 39 cb             	cmp    %r9d,%ebx
    38ea:	74 51                	je     393d <_Z7pspeedyP6PointsfPliP16parsec_barrier_t+0x95d>
    result += (p1.coord[i] - p2.coord[i])*(p1.coord[i] - p2.coord[i]);
    38ec:	48 63 d0             	movslq %eax,%rdx
  for (i=0;i<dim;i++)
    38ef:	8d 68 01             	lea    0x1(%rax),%ebp
    result += (p1.coord[i] - p2.coord[i])*(p1.coord[i] - p2.coord[i]);
    38f2:	f3 0f 10 1c 97       	movss  (%rdi,%rdx,4),%xmm3
    38f7:	f3 41 0f 5c 1c 90    	subss  (%r8,%rdx,4),%xmm3
    38fd:	f3 0f 59 db          	mulss  %xmm3,%xmm3
    3901:	f3 0f 58 c3          	addss  %xmm3,%xmm0
  for (i=0;i<dim;i++)
    3905:	41 39 e9             	cmp    %ebp,%r9d
    3908:	7e 33                	jle    393d <_Z7pspeedyP6PointsfPliP16parsec_barrier_t+0x95d>
    result += (p1.coord[i] - p2.coord[i])*(p1.coord[i] - p2.coord[i]);
    390a:	48 63 cd             	movslq %ebp,%rcx
  for (i=0;i<dim;i++)
    390d:	83 c0 02             	add    $0x2,%eax
    result += (p1.coord[i] - p2.coord[i])*(p1.coord[i] - p2.coord[i]);
    3910:	f3 0f 10 3c 8f       	movss  (%rdi,%rcx,4),%xmm7
    3915:	f3 41 0f 5c 3c 88    	subss  (%r8,%rcx,4),%xmm7
    391b:	f3 0f 59 ff          	mulss  %xmm7,%xmm7
    391f:	f3 0f 58 c7          	addss  %xmm7,%xmm0
  for (i=0;i<dim;i++)
    3923:	41 39 c1             	cmp    %eax,%r9d
    3926:	7e 15                	jle    393d <_Z7pspeedyP6PointsfPliP16parsec_barrier_t+0x95d>
    result += (p1.coord[i] - p2.coord[i])*(p1.coord[i] - p2.coord[i]);
    3928:	48 98                	cltq   
    392a:	f3 0f 10 14 87       	movss  (%rdi,%rax,4),%xmm2
    392f:	f3 41 0f 5c 14 80    	subss  (%r8,%rax,4),%xmm2
    3935:	f3 0f 59 d2          	mulss  %xmm2,%xmm2
    3939:	f3 0f 58 c2          	addss  %xmm2,%xmm0
	  if( distance*points->p[k].weight < points->p[k].cost )
    393d:	f3 0f 59 46 b8       	mulss  -0x48(%rsi),%xmm0
    3942:	f3 0f 10 66 d0       	movss  -0x30(%rsi),%xmm4
    3947:	0f 18 4e 10          	prefetcht0 0x10(%rsi)
    394b:	0f 2f e0             	comiss %xmm0,%xmm4
    394e:	76 09                	jbe    3959 <_Z7pspeedyP6PointsfPliP16parsec_barrier_t+0x979>
	      points->p[k].assign=i;
    3950:	4c 89 7e c8          	mov    %r15,-0x38(%rsi)
	      points->p[k].cost = distance * points->p[k].weight;
    3954:	f3 0f 11 46 d0       	movss  %xmm0,-0x30(%rsi)
      for( int k = k1; k < k2; k++ )
    3959:	48 83 c6 20          	add    $0x20,%rsi
    395d:	4c 39 ee             	cmp    %r13,%rsi
    3960:	0f 85 02 fc ff ff    	jne    3568 <_Z7pspeedyP6PointsfPliP16parsec_barrier_t+0x588>
      pthread_barrier_wait(barrier);
    3966:	48 8b 5c 24 30       	mov    0x30(%rsp),%rbx
    396b:	48 89 df             	mov    %rbx,%rdi
    396e:	e8 dd 77 00 00       	callq  b150 <_Z19parsec_barrier_waitP16parsec_barrier_t>
      pthread_barrier_wait(barrier);
    3973:	48 89 df             	mov    %rbx,%rdi
    3976:	e8 d5 77 00 00       	callq  b150 <_Z19parsec_barrier_waitP16parsec_barrier_t>
    } 
    397b:	e9 38 fb ff ff       	jmpq   34b8 <_Z7pspeedyP6PointsfPliP16parsec_barrier_t+0x4d8>
  float result=0.0;
    3980:	66 0f ef c0          	pxor   %xmm0,%xmm0
    3984:	eb b7                	jmp    393d <_Z7pspeedyP6PointsfPliP16parsec_barrier_t+0x95d>
    3986:	66 0f ef c0          	pxor   %xmm0,%xmm0
  for (i=0;i<dim;i++)
    398a:	31 c0                	xor    %eax,%eax
    398c:	e9 5b ff ff ff       	jmpq   38ec <_Z7pspeedyP6PointsfPliP16parsec_barrier_t+0x90c>
    3991:	c7 44 24 18 00 00 00 	movl   $0x0,0x18(%rsp)
    3998:	00 
    3999:	66 0f ef c9          	pxor   %xmm1,%xmm1
    399d:	e9 ff fc ff ff       	jmpq   36a1 <_Z7pspeedyP6PointsfPliP16parsec_barrier_t+0x6c1>
  float result=0.0;
    39a2:	66 0f ef c0          	pxor   %xmm0,%xmm0
    39a6:	e9 a7 fa ff ff       	jmpq   3452 <_Z7pspeedyP6PointsfPliP16parsec_barrier_t+0x472>
    39ab:	66 0f ef c0          	pxor   %xmm0,%xmm0
  for (i=0;i<dim;i++)
    39af:	31 f6                	xor    %esi,%esi
    39b1:	e9 46 fa ff ff       	jmpq   33fc <_Z7pspeedyP6PointsfPliP16parsec_barrier_t+0x41c>
    39b6:	c7 44 24 0c 00 00 00 	movl   $0x0,0xc(%rsp)
    39bd:	00 
    39be:	66 0f ef c0          	pxor   %xmm0,%xmm0
    39c2:	e9 30 f8 ff ff       	jmpq   31f7 <_Z7pspeedyP6PointsfPliP16parsec_barrier_t+0x217>
    *kcenter = 1;
    39c7:	4c 8b 44 24 60       	mov    0x60(%rsp),%r8
    costs = (double*)malloc(sizeof(double)*nproc);
    39cc:	48 8b 7c 24 18       	mov    0x18(%rsp),%rdi
    *kcenter = 1;
    39d1:	49 c7 00 01 00 00 00 	movq   $0x1,(%r8)
    costs = (double*)malloc(sizeof(double)*nproc);
    39d8:	48 c1 e7 03          	shl    $0x3,%rdi
    39dc:	e8 9f ea ff ff       	callq  2480 <malloc@plt>
  pthread_barrier_wait(barrier);
    39e1:	48 8b 7c 24 30       	mov    0x30(%rsp),%rdi
    costs = (double*)malloc(sizeof(double)*nproc);
    39e6:	48 89 05 03 b7 00 00 	mov    %rax,0xb703(%rip)        # f0f0 <_ZZ7pspeedyP6PointsfPliP16parsec_barrier_tE5costs>
  pthread_barrier_wait(barrier);
    39ed:	e8 5e 77 00 00       	callq  b150 <_Z19parsec_barrier_waitP16parsec_barrier_t>
    for(i = 1; i < points->num; i++ )  {
    39f2:	4c 8b 4c 24 20       	mov    0x20(%rsp),%r9
    39f7:	c7 05 e7 b6 00 00 01 	movl   $0x1,0xb6e7(%rip)        # f0e8 <_ZZ7pspeedyP6PointsfPliP16parsec_barrier_tE1i>
    39fe:	00 00 00 
    3a01:	49 83 39 01          	cmpq   $0x1,(%r9)
    3a05:	0f 8e 98 05 00 00    	jle    3fa3 <_Z7pspeedyP6PointsfPliP16parsec_barrier_t+0xfc3>
    3a0b:	4c 8b 5c 24 38       	mov    0x38(%rsp),%r11
    3a10:	4c 8b 64 24 28       	mov    0x28(%rsp),%r12
    3a15:	48 8b 5c 24 20       	mov    0x20(%rsp),%rbx
    3a1a:	49 c1 e3 05          	shl    $0x5,%r11
    3a1e:	49 c1 e4 05          	shl    $0x5,%r12
    3a22:	49 83 c3 48          	add    $0x48,%r11
    3a26:	4c 89 64 24 40       	mov    %r12,0x40(%rsp)
    3a2b:	4c 89 5c 24 48       	mov    %r11,0x48(%rsp)
    3a30:	eb 1b                	jmp    3a4d <_Z7pspeedyP6PointsfPliP16parsec_barrier_t+0xa6d>
    3a32:	66 0f 1f 44 00 00    	nopw   0x0(%rax,%rax,1)
    3a38:	83 c1 01             	add    $0x1,%ecx
    3a3b:	89 0d a7 b6 00 00    	mov    %ecx,0xb6a7(%rip)        # f0e8 <_ZZ7pspeedyP6PointsfPliP16parsec_barrier_tE1i>
    3a41:	4c 63 c9             	movslq %ecx,%r9
    3a44:	4c 3b 0b             	cmp    (%rbx),%r9
    3a47:	0f 8d 56 05 00 00    	jge    3fa3 <_Z7pspeedyP6PointsfPliP16parsec_barrier_t+0xfc3>
      bool to_open = ((float)lrand48()/(float)INT_MAX)<(points->p[i].cost/z);
    3a4d:	e8 1e e9 ff ff       	callq  2370 <lrand48@plt>
    3a52:	66 0f ef c0          	pxor   %xmm0,%xmm0
    3a56:	8b 0d 8c b6 00 00    	mov    0xb68c(%rip),%ecx        # f0e8 <_ZZ7pspeedyP6PointsfPliP16parsec_barrier_tE1i>
    3a5c:	f3 48 0f 2a c0       	cvtsi2ss %rax,%xmm0
    3a61:	f3 0f 59 05 4f 8b 00 	mulss  0x8b4f(%rip),%xmm0        # c5b8 <_ZTS10FileStream+0x10>
    3a68:	00 
    3a69:	4c 63 e9             	movslq %ecx,%r13
    3a6c:	49 c1 e5 05          	shl    $0x5,%r13
    3a70:	4c 03 6b 10          	add    0x10(%rbx),%r13
    3a74:	f3 41 0f 10 6d 18    	movss  0x18(%r13),%xmm5
    3a7a:	f3 0f 5e 6c 24 58    	divss  0x58(%rsp),%xmm5
      if( to_open )  {
    3a80:	0f 2f e8             	comiss %xmm0,%xmm5
    3a83:	76 b3                	jbe    3a38 <_Z7pspeedyP6PointsfPliP16parsec_barrier_t+0xa58>
	(*kcenter)++;
    3a85:	4c 8b 7c 24 60       	mov    0x60(%rsp),%r15
	pthread_mutex_lock(&mutex);
    3a8a:	48 8d 3d 2f b6 00 00 	lea    0xb62f(%rip),%rdi        # f0c0 <_ZZ7pspeedyP6PointsfPliP16parsec_barrier_tE5mutex>
	(*kcenter)++;
    3a91:	49 83 07 01          	addq   $0x1,(%r15)
	pthread_mutex_lock(&mutex);
    3a95:	e8 06 ea ff ff       	callq  24a0 <pthread_mutex_lock@plt>
	pthread_mutex_unlock(&mutex);
    3a9a:	48 8d 3d 1f b6 00 00 	lea    0xb61f(%rip),%rdi        # f0c0 <_ZZ7pspeedyP6PointsfPliP16parsec_barrier_tE5mutex>
	open = true;
    3aa1:	c6 05 50 b6 00 00 01 	movb   $0x1,0xb650(%rip)        # f0f8 <_ZZ7pspeedyP6PointsfPliP16parsec_barrier_tE4open>
	pthread_mutex_unlock(&mutex);
    3aa8:	e8 b3 e8 ff ff       	callq  2360 <pthread_mutex_unlock@plt>
	pthread_cond_broadcast(&cond);
    3aad:	48 8d 3d cc b5 00 00 	lea    0xb5cc(%rip),%rdi        # f080 <_ZZ7pspeedyP6PointsfPliP16parsec_barrier_tE4cond>
    3ab4:	e8 47 e8 ff ff       	callq  2300 <pthread_cond_broadcast@plt>
	for( int k = k1; k < k2; k++ )  {
    3ab9:	48 8b 54 24 38       	mov    0x38(%rsp),%rdx
    3abe:	48 39 54 24 28       	cmp    %rdx,0x28(%rsp)
    3ac3:	0f 8e 60 04 00 00    	jle    3f29 <_Z7pspeedyP6PointsfPliP16parsec_barrier_t+0xf49>
	  float distance = dist(points->p[i],points->p[k],points->dim);
    3ac9:	44 8b 53 08          	mov    0x8(%rbx),%r10d
    3acd:	48 8b 6b 10          	mov    0x10(%rbx),%rbp
    3ad1:	48 89 5c 24 50       	mov    %rbx,0x50(%rsp)
    3ad6:	4c 63 25 0b b6 00 00 	movslq 0xb60b(%rip),%r12        # f0e8 <_ZZ7pspeedyP6PointsfPliP16parsec_barrier_tE1i>
    3add:	48 8b 4c 24 48       	mov    0x48(%rsp),%rcx
    3ae2:	45 89 d3             	mov    %r10d,%r11d
    3ae5:	4c 8b 74 24 40       	mov    0x40(%rsp),%r14
    3aea:	45 8d 7a ff          	lea    -0x1(%r10),%r15d
    3aee:	41 c1 eb 02          	shr    $0x2,%r11d
    3af2:	4c 89 64 24 10       	mov    %r12,0x10(%rsp)
    3af7:	49 c1 e4 05          	shl    $0x5,%r12
    3afb:	48 8d 74 0d 00       	lea    0x0(%rbp,%rcx,1),%rsi
    3b00:	41 8d 43 fb          	lea    -0x5(%r11),%eax
    3b04:	49 01 ec             	add    %rbp,%r12
    3b07:	4e 8d 74 35 48       	lea    0x48(%rbp,%r14,1),%r14
    3b0c:	44 89 d5             	mov    %r10d,%ebp
    3b0f:	83 e0 fc             	and    $0xfffffffc,%eax
    3b12:	83 e5 fc             	and    $0xfffffffc,%ebp
    3b15:	89 44 24 0c          	mov    %eax,0xc(%rsp)
    3b19:	83 c0 04             	add    $0x4,%eax
    3b1c:	89 44 24 18          	mov    %eax,0x18(%rsp)
    3b20:	49 8b 7c 24 08       	mov    0x8(%r12),%rdi
    3b25:	0f 18 0e             	prefetcht0 (%rsi)
    3b28:	4c 8b 46 c0          	mov    -0x40(%rsi),%r8
  for (i=0;i<dim;i++)
    3b2c:	45 85 d2             	test   %r10d,%r10d
    3b2f:	0f 8e 01 09 00 00    	jle    4436 <_Z7pspeedyP6PointsfPliP16parsec_barrier_t+0x1456>
    3b35:	41 83 ff 02          	cmp    $0x2,%r15d
    3b39:	0f 86 63 0a 00 00    	jbe    45a2 <_Z7pspeedyP6PointsfPliP16parsec_barrier_t+0x15c2>
    3b3f:	4c 89 c0             	mov    %r8,%rax
    3b42:	48 89 fa             	mov    %rdi,%rdx
    3b45:	41 83 fb 04          	cmp    $0x4,%r11d
    3b49:	0f 86 5e 0a 00 00    	jbe    45ad <_Z7pspeedyP6PointsfPliP16parsec_barrier_t+0x15cd>
    3b4f:	45 31 c9             	xor    %r9d,%r9d
  float result=0.0;
    3b52:	66 0f ef c0          	pxor   %xmm0,%xmm0
    3b56:	eb 0b                	jmp    3b63 <_Z7pspeedyP6PointsfPliP16parsec_barrier_t+0xb83>
    3b58:	0f 1f 84 00 00 00 00 	nopl   0x0(%rax,%rax,1)
    3b5f:	00 
    result += (p1.coord[i] - p2.coord[i])*(p1.coord[i] - p2.coord[i]);
    3b60:	41 89 d9             	mov    %ebx,%r9d
    3b63:	0f 10 08             	movups (%rax),%xmm1
    3b66:	44 0f 10 02          	movups (%rdx),%xmm8
    3b6a:	0f 18 8a 00 01 00 00 	prefetcht0 0x100(%rdx)
    3b71:	0f 18 88 00 01 00 00 	prefetcht0 0x100(%rax)
    3b78:	0f 10 5a 20          	movups 0x20(%rdx),%xmm3
    3b7c:	0f 10 78 20          	movups 0x20(%rax),%xmm7
    3b80:	48 83 c2 40          	add    $0x40,%rdx
    3b84:	48 83 c0 40          	add    $0x40,%rax
    3b88:	44 0f 5c c1          	subps  %xmm1,%xmm8
    3b8c:	44 0f 10 5a d0       	movups -0x30(%rdx),%xmm11
    3b91:	0f 10 48 f0          	movups -0x10(%rax),%xmm1
    3b95:	41 8d 59 04          	lea    0x4(%r9),%ebx
    3b99:	44 0f 10 60 d0       	movups -0x30(%rax),%xmm12
    3b9e:	0f 5c df             	subps  %xmm7,%xmm3
    3ba1:	45 0f 59 c0          	mulps  %xmm8,%xmm8
    3ba5:	45 0f 5c dc          	subps  %xmm12,%xmm11
    3ba9:	0f 59 db             	mulps  %xmm3,%xmm3
    3bac:	45 0f 59 db          	mulps  %xmm11,%xmm11
    3bb0:	f3 41 0f 58 c0       	addss  %xmm8,%xmm0
    3bb5:	45 0f 28 c8          	movaps %xmm8,%xmm9
    3bb9:	45 0f c6 c8 55       	shufps $0x55,%xmm8,%xmm9
    3bbe:	0f 28 e3             	movaps %xmm3,%xmm4
    3bc1:	0f 28 eb             	movaps %xmm3,%xmm5
    3bc4:	0f c6 e3 55          	shufps $0x55,%xmm3,%xmm4
    3bc8:	0f 15 eb             	unpckhps %xmm3,%xmm5
    3bcb:	f3 44 0f 58 c8       	addss  %xmm0,%xmm9
    3bd0:	41 0f 28 c0          	movaps %xmm8,%xmm0
    3bd4:	45 0f 28 f3          	movaps %xmm11,%xmm14
    3bd8:	41 0f 15 c0          	unpckhps %xmm8,%xmm0
    3bdc:	45 0f c6 c0 ff       	shufps $0xff,%xmm8,%xmm8
    3be1:	45 0f c6 f3 55       	shufps $0x55,%xmm11,%xmm14
    3be6:	45 0f 28 fb          	movaps %xmm11,%xmm15
    3bea:	45 0f 15 fb          	unpckhps %xmm11,%xmm15
    3bee:	f3 41 0f 58 c1       	addss  %xmm9,%xmm0
    3bf3:	f3 41 0f 58 c0       	addss  %xmm8,%xmm0
    3bf8:	44 0f 10 42 f0       	movups -0x10(%rdx),%xmm8
    3bfd:	44 0f 5c c1          	subps  %xmm1,%xmm8
    3c01:	f3 41 0f 58 c3       	addss  %xmm11,%xmm0
    3c06:	45 0f c6 db ff       	shufps $0xff,%xmm11,%xmm11
    3c0b:	45 0f 59 c0          	mulps  %xmm8,%xmm8
    3c0f:	f3 41 0f 58 c6       	addss  %xmm14,%xmm0
    3c14:	f3 41 0f 58 c7       	addss  %xmm15,%xmm0
    3c19:	45 0f 28 c8          	movaps %xmm8,%xmm9
    3c1d:	45 0f 28 d0          	movaps %xmm8,%xmm10
    3c21:	45 0f c6 c8 55       	shufps $0x55,%xmm8,%xmm9
    3c26:	45 0f 15 d0          	unpckhps %xmm8,%xmm10
    3c2a:	f3 41 0f 58 c3       	addss  %xmm11,%xmm0
    3c2f:	f3 0f 58 c3          	addss  %xmm3,%xmm0
    3c33:	0f c6 db ff          	shufps $0xff,%xmm3,%xmm3
    3c37:	f3 0f 58 c4          	addss  %xmm4,%xmm0
    3c3b:	f3 0f 58 c5          	addss  %xmm5,%xmm0
    3c3f:	f3 0f 58 c3          	addss  %xmm3,%xmm0
    3c43:	f3 41 0f 58 c0       	addss  %xmm8,%xmm0
    3c48:	45 0f c6 c0 ff       	shufps $0xff,%xmm8,%xmm8
    3c4d:	f3 41 0f 58 c1       	addss  %xmm9,%xmm0
    3c52:	f3 41 0f 58 c2       	addss  %xmm10,%xmm0
    3c57:	f3 41 0f 58 c0       	addss  %xmm8,%xmm0
  for (i=0;i<dim;i++)
    3c5c:	44 3b 4c 24 0c       	cmp    0xc(%rsp),%r9d
    3c61:	0f 85 f9 fe ff ff    	jne    3b60 <_Z7pspeedyP6PointsfPliP16parsec_barrier_t+0xb80>
    result += (p1.coord[i] - p2.coord[i])*(p1.coord[i] - p2.coord[i]);
    3c67:	44 8b 6c 24 18       	mov    0x18(%rsp),%r13d
    3c6c:	44 0f 10 1a          	movups (%rdx),%xmm11
    3c70:	44 0f 10 20          	movups (%rax),%xmm12
    3c74:	44 89 eb             	mov    %r13d,%ebx
    3c77:	45 8d 4d 01          	lea    0x1(%r13),%r9d
    3c7b:	f7 d3                	not    %ebx
    3c7d:	b9 10 00 00 00       	mov    $0x10,%ecx
    3c82:	45 0f 5c dc          	subps  %xmm12,%xmm11
    3c86:	44 01 db             	add    %r11d,%ebx
    3c89:	83 e3 03             	and    $0x3,%ebx
    3c8c:	45 0f 59 db          	mulps  %xmm11,%xmm11
    3c90:	f3 41 0f 58 c3       	addss  %xmm11,%xmm0
    3c95:	45 0f 28 f3          	movaps %xmm11,%xmm14
    3c99:	45 0f 28 fb          	movaps %xmm11,%xmm15
    3c9d:	45 0f c6 f3 55       	shufps $0x55,%xmm11,%xmm14
    3ca2:	45 0f 15 fb          	unpckhps %xmm11,%xmm15
    3ca6:	45 0f c6 db ff       	shufps $0xff,%xmm11,%xmm11
    3cab:	f3 41 0f 58 c6       	addss  %xmm14,%xmm0
    3cb0:	f3 41 0f 58 c7       	addss  %xmm15,%xmm0
    3cb5:	f3 41 0f 58 c3       	addss  %xmm11,%xmm0
  for (i=0;i<dim;i++)
    3cba:	45 39 cb             	cmp    %r9d,%r11d
    3cbd:	0f 86 d5 01 00 00    	jbe    3e98 <_Z7pspeedyP6PointsfPliP16parsec_barrier_t+0xeb8>
    3cc3:	85 db                	test   %ebx,%ebx
    3cc5:	0f 84 e5 00 00 00    	je     3db0 <_Z7pspeedyP6PointsfPliP16parsec_barrier_t+0xdd0>
    3ccb:	83 fb 01             	cmp    $0x1,%ebx
    3cce:	0f 84 87 00 00 00    	je     3d5b <_Z7pspeedyP6PointsfPliP16parsec_barrier_t+0xd7b>
    3cd4:	83 fb 02             	cmp    $0x2,%ebx
    3cd7:	74 3b                	je     3d14 <_Z7pspeedyP6PointsfPliP16parsec_barrier_t+0xd34>
    result += (p1.coord[i] - p2.coord[i])*(p1.coord[i] - p2.coord[i]);
    3cd9:	0f 10 5a 10          	movups 0x10(%rdx),%xmm3
    3cdd:	0f 10 78 10          	movups 0x10(%rax),%xmm7
    3ce1:	b9 20 00 00 00       	mov    $0x20,%ecx
    3ce6:	45 8d 4d 02          	lea    0x2(%r13),%r9d
    3cea:	0f 5c df             	subps  %xmm7,%xmm3
    3ced:	0f 59 db             	mulps  %xmm3,%xmm3
    3cf0:	f3 0f 58 c3          	addss  %xmm3,%xmm0
    3cf4:	0f 28 e3             	movaps %xmm3,%xmm4
    3cf7:	0f 28 eb             	movaps %xmm3,%xmm5
    3cfa:	0f c6 e3 55          	shufps $0x55,%xmm3,%xmm4
    3cfe:	0f 15 eb             	unpckhps %xmm3,%xmm5
    3d01:	f3 0f 58 c4          	addss  %xmm4,%xmm0
    3d05:	f3 0f 58 e8          	addss  %xmm0,%xmm5
    3d09:	0f 28 c3             	movaps %xmm3,%xmm0
    3d0c:	0f c6 c3 ff          	shufps $0xff,%xmm3,%xmm0
    3d10:	f3 0f 58 c5          	addss  %xmm5,%xmm0
    3d14:	44 0f 10 04 0a       	movups (%rdx,%rcx,1),%xmm8
    3d19:	0f 10 0c 08          	movups (%rax,%rcx,1),%xmm1
    3d1d:	41 83 c1 01          	add    $0x1,%r9d
    3d21:	48 83 c1 10          	add    $0x10,%rcx
    3d25:	44 0f 5c c1          	subps  %xmm1,%xmm8
    3d29:	45 0f 59 c0          	mulps  %xmm8,%xmm8
    3d2d:	f3 41 0f 58 c0       	addss  %xmm8,%xmm0
    3d32:	45 0f 28 c8          	movaps %xmm8,%xmm9
    3d36:	45 0f 28 d0          	movaps %xmm8,%xmm10
    3d3a:	45 0f c6 c8 55       	shufps $0x55,%xmm8,%xmm9
    3d3f:	45 0f 15 d0          	unpckhps %xmm8,%xmm10
    3d43:	f3 41 0f 58 c1       	addss  %xmm9,%xmm0
    3d48:	f3 44 0f 58 d0       	addss  %xmm0,%xmm10
    3d4d:	41 0f 28 c0          	movaps %xmm8,%xmm0
    3d51:	41 0f c6 c0 ff       	shufps $0xff,%xmm8,%xmm0
    3d56:	f3 41 0f 58 c2       	addss  %xmm10,%xmm0
    3d5b:	44 0f 10 1c 0a       	movups (%rdx,%rcx,1),%xmm11
    3d60:	44 0f 10 24 08       	movups (%rax,%rcx,1),%xmm12
    3d65:	41 83 c1 01          	add    $0x1,%r9d
    3d69:	48 83 c1 10          	add    $0x10,%rcx
    3d6d:	45 0f 5c dc          	subps  %xmm12,%xmm11
    3d71:	45 0f 59 db          	mulps  %xmm11,%xmm11
    3d75:	f3 41 0f 58 c3       	addss  %xmm11,%xmm0
    3d7a:	45 0f 28 f3          	movaps %xmm11,%xmm14
    3d7e:	45 0f 28 fb          	movaps %xmm11,%xmm15
    3d82:	45 0f c6 f3 55       	shufps $0x55,%xmm11,%xmm14
    3d87:	45 0f 15 fb          	unpckhps %xmm11,%xmm15
    3d8b:	45 0f c6 db ff       	shufps $0xff,%xmm11,%xmm11
    3d90:	f3 41 0f 58 c6       	addss  %xmm14,%xmm0
    3d95:	f3 44 0f 58 f8       	addss  %xmm0,%xmm15
    3d9a:	41 0f 28 c3          	movaps %xmm11,%xmm0
    3d9e:	f3 41 0f 58 c7       	addss  %xmm15,%xmm0
  for (i=0;i<dim;i++)
    3da3:	45 39 cb             	cmp    %r9d,%r11d
    3da6:	0f 86 ec 00 00 00    	jbe    3e98 <_Z7pspeedyP6PointsfPliP16parsec_barrier_t+0xeb8>
    3dac:	0f 1f 40 00          	nopl   0x0(%rax)
    result += (p1.coord[i] - p2.coord[i])*(p1.coord[i] - p2.coord[i]);
    3db0:	0f 10 3c 08          	movups (%rax,%rcx,1),%xmm7
    3db4:	0f 10 1c 0a          	movups (%rdx,%rcx,1),%xmm3
    3db8:	41 83 c1 04          	add    $0x4,%r9d
    3dbc:	0f 10 4c 0a 10       	movups 0x10(%rdx,%rcx,1),%xmm1
    3dc1:	0f 10 74 08 10       	movups 0x10(%rax,%rcx,1),%xmm6
    3dc6:	0f 5c df             	subps  %xmm7,%xmm3
    3dc9:	44 0f 10 64 0a 20    	movups 0x20(%rdx,%rcx,1),%xmm12
    3dcf:	44 0f 10 6c 08 20    	movups 0x20(%rax,%rcx,1),%xmm13
    3dd5:	0f 5c ce             	subps  %xmm6,%xmm1
    3dd8:	0f 10 7c 08 30       	movups 0x30(%rax,%rcx,1),%xmm7
    3ddd:	45 0f 5c e5          	subps  %xmm13,%xmm12
    3de1:	0f 59 db             	mulps  %xmm3,%xmm3
    3de4:	0f 59 c9             	mulps  %xmm1,%xmm1
    3de7:	45 0f 59 e4          	mulps  %xmm12,%xmm12
    3deb:	f3 0f 58 c3          	addss  %xmm3,%xmm0
    3def:	0f 28 e3             	movaps %xmm3,%xmm4
    3df2:	0f 28 eb             	movaps %xmm3,%xmm5
    3df5:	0f c6 e3 55          	shufps $0x55,%xmm3,%xmm4
    3df9:	0f 15 eb             	unpckhps %xmm3,%xmm5
    3dfc:	0f c6 db ff          	shufps $0xff,%xmm3,%xmm3
    3e00:	44 0f 28 d1          	movaps %xmm1,%xmm10
    3e04:	44 0f c6 d1 55       	shufps $0x55,%xmm1,%xmm10
    3e09:	44 0f 28 d9          	movaps %xmm1,%xmm11
    3e0d:	45 0f 28 fc          	movaps %xmm12,%xmm15
    3e11:	f3 0f 58 c4          	addss  %xmm4,%xmm0
    3e15:	44 0f 15 d9          	unpckhps %xmm1,%xmm11
    3e19:	0f 10 64 0a 30       	movups 0x30(%rdx,%rcx,1),%xmm4
    3e1e:	45 0f c6 fc 55       	shufps $0x55,%xmm12,%xmm15
    3e23:	48 83 c1 40          	add    $0x40,%rcx
    3e27:	0f 5c e7             	subps  %xmm7,%xmm4
    3e2a:	f3 0f 58 c5          	addss  %xmm5,%xmm0
    3e2e:	0f 59 e4             	mulps  %xmm4,%xmm4
    3e31:	f3 0f 58 c3          	addss  %xmm3,%xmm0
    3e35:	41 0f 28 dc          	movaps %xmm12,%xmm3
    3e39:	41 0f 15 dc          	unpckhps %xmm12,%xmm3
    3e3d:	f3 0f 58 c1          	addss  %xmm1,%xmm0
    3e41:	0f c6 c9 ff          	shufps $0xff,%xmm1,%xmm1
    3e45:	0f 28 ec             	movaps %xmm4,%xmm5
    3e48:	44 0f 28 c4          	movaps %xmm4,%xmm8
    3e4c:	0f c6 ec 55          	shufps $0x55,%xmm4,%xmm5
    3e50:	44 0f 15 c4          	unpckhps %xmm4,%xmm8
    3e54:	f3 41 0f 58 c2       	addss  %xmm10,%xmm0
    3e59:	f3 41 0f 58 c3       	addss  %xmm11,%xmm0
    3e5e:	f3 0f 58 c1          	addss  %xmm1,%xmm0
    3e62:	f3 41 0f 58 c4       	addss  %xmm12,%xmm0
    3e67:	45 0f c6 e4 ff       	shufps $0xff,%xmm12,%xmm12
    3e6c:	f3 41 0f 58 c7       	addss  %xmm15,%xmm0
    3e71:	f3 0f 58 c3          	addss  %xmm3,%xmm0
    3e75:	f3 41 0f 58 c4       	addss  %xmm12,%xmm0
    3e7a:	f3 0f 58 c4          	addss  %xmm4,%xmm0
    3e7e:	0f c6 e4 ff          	shufps $0xff,%xmm4,%xmm4
    3e82:	f3 0f 58 c5          	addss  %xmm5,%xmm0
    3e86:	f3 41 0f 58 c0       	addss  %xmm8,%xmm0
    3e8b:	f3 0f 58 c4          	addss  %xmm4,%xmm0
  for (i=0;i<dim;i++)
    3e8f:	45 39 cb             	cmp    %r9d,%r11d
    3e92:	0f 87 18 ff ff ff    	ja     3db0 <_Z7pspeedyP6PointsfPliP16parsec_barrier_t+0xdd0>
    3e98:	89 e8                	mov    %ebp,%eax
    3e9a:	44 39 d5             	cmp    %r10d,%ebp
    3e9d:	74 55                	je     3ef4 <_Z7pspeedyP6PointsfPliP16parsec_barrier_t+0xf14>
    result += (p1.coord[i] - p2.coord[i])*(p1.coord[i] - p2.coord[i]);
    3e9f:	48 63 d0             	movslq %eax,%rdx
  for (i=0;i<dim;i++)
    3ea2:	44 8d 68 01          	lea    0x1(%rax),%r13d
    result += (p1.coord[i] - p2.coord[i])*(p1.coord[i] - p2.coord[i]);
    3ea6:	f3 0f 10 0c 97       	movss  (%rdi,%rdx,4),%xmm1
    3eab:	f3 41 0f 5c 0c 90    	subss  (%r8,%rdx,4),%xmm1
    3eb1:	f3 0f 59 c9          	mulss  %xmm1,%xmm1
    3eb5:	f3 0f 58 c1          	addss  %xmm1,%xmm0
  for (i=0;i<dim;i++)
    3eb9:	45 39 ea             	cmp    %r13d,%r10d
    3ebc:	7e 36                	jle    3ef4 <_Z7pspeedyP6PointsfPliP16parsec_barrier_t+0xf14>
    result += (p1.coord[i] - p2.coord[i])*(p1.coord[i] - p2.coord[i]);
    3ebe:	49 63 dd             	movslq %r13d,%rbx
  for (i=0;i<dim;i++)
    3ec1:	83 c0 02             	add    $0x2,%eax
    result += (p1.coord[i] - p2.coord[i])*(p1.coord[i] - p2.coord[i]);
    3ec4:	f3 0f 10 34 9f       	movss  (%rdi,%rbx,4),%xmm6
    3ec9:	f3 41 0f 5c 34 98    	subss  (%r8,%rbx,4),%xmm6
    3ecf:	f3 0f 59 f6          	mulss  %xmm6,%xmm6
    3ed3:	f3 0f 58 c6          	addss  %xmm6,%xmm0
  for (i=0;i<dim;i++)
    3ed7:	41 39 c2             	cmp    %eax,%r10d
    3eda:	7e 18                	jle    3ef4 <_Z7pspeedyP6PointsfPliP16parsec_barrier_t+0xf14>
    result += (p1.coord[i] - p2.coord[i])*(p1.coord[i] - p2.coord[i]);
    3edc:	48 98                	cltq   
    3ede:	f3 44 0f 10 0c 87    	movss  (%rdi,%rax,4),%xmm9
    3ee4:	f3 45 0f 5c 0c 80    	subss  (%r8,%rax,4),%xmm9
    3eea:	f3 45 0f 59 c9       	mulss  %xmm9,%xmm9
    3eef:	f3 41 0f 58 c1       	addss  %xmm9,%xmm0
	  if( distance*points->p[k].weight < points->p[k].cost )  {
    3ef4:	f3 0f 59 46 b8       	mulss  -0x48(%rsi),%xmm0
    3ef9:	f3 44 0f 10 56 d0    	movss  -0x30(%rsi),%xmm10
    3eff:	0f 18 4e 10          	prefetcht0 0x10(%rsi)
    3f03:	44 0f 2f d0          	comiss %xmm0,%xmm10
    3f07:	76 0e                	jbe    3f17 <_Z7pspeedyP6PointsfPliP16parsec_barrier_t+0xf37>
	    points->p[k].assign=i;
    3f09:	48 8b 44 24 10       	mov    0x10(%rsp),%rax
	    points->p[k].cost = distance * points->p[k].weight;
    3f0e:	f3 0f 11 46 d0       	movss  %xmm0,-0x30(%rsi)
	    points->p[k].assign=i;
    3f13:	48 89 46 c8          	mov    %rax,-0x38(%rsi)
	for( int k = k1; k < k2; k++ )  {
    3f17:	48 83 c6 20          	add    $0x20,%rsi
    3f1b:	4c 39 f6             	cmp    %r14,%rsi
    3f1e:	0f 85 fc fb ff ff    	jne    3b20 <_Z7pspeedyP6PointsfPliP16parsec_barrier_t+0xb40>
    3f24:	48 8b 5c 24 50       	mov    0x50(%rsp),%rbx
	pthread_barrier_wait(barrier);
    3f29:	48 8b 6c 24 30       	mov    0x30(%rsp),%rbp
    3f2e:	48 89 ef             	mov    %rbp,%rdi
    3f31:	e8 1a 72 00 00       	callq  b150 <_Z19parsec_barrier_waitP16parsec_barrier_t>
	pthread_barrier_wait(barrier);
    3f36:	48 89 ef             	mov    %rbp,%rdi
	open = false;
    3f39:	c6 05 b8 b1 00 00 00 	movb   $0x0,0xb1b8(%rip)        # f0f8 <_ZZ7pspeedyP6PointsfPliP16parsec_barrier_tE4open>
	pthread_barrier_wait(barrier);
    3f40:	e8 0b 72 00 00       	callq  b150 <_Z19parsec_barrier_waitP16parsec_barrier_t>
    3f45:	8b 0d 9d b1 00 00    	mov    0xb19d(%rip),%ecx        # f0e8 <_ZZ7pspeedyP6PointsfPliP16parsec_barrier_tE1i>
    3f4b:	e9 e8 fa ff ff       	jmpq   3a38 <_Z7pspeedyP6PointsfPliP16parsec_barrier_t+0xa58>
    result += (p1.coord[i] - p2.coord[i])*(p1.coord[i] - p2.coord[i]);
    3f50:	44 0f 10 51 10       	movups 0x10(%rcx),%xmm10
    3f55:	44 0f 10 5a 10       	movups 0x10(%rdx),%xmm11
    3f5a:	be 20 00 00 00       	mov    $0x20,%esi
    3f5f:	44 8b 54 24 0c       	mov    0xc(%rsp),%r10d
    3f64:	45 0f 5c d3          	subps  %xmm11,%xmm10
    3f68:	41 83 c2 02          	add    $0x2,%r10d
    3f6c:	45 0f 59 d2          	mulps  %xmm10,%xmm10
    3f70:	f3 41 0f 58 c2       	addss  %xmm10,%xmm0
    3f75:	45 0f 28 ea          	movaps %xmm10,%xmm13
    3f79:	45 0f 28 f2          	movaps %xmm10,%xmm14
    3f7d:	45 0f c6 ea 55       	shufps $0x55,%xmm10,%xmm13
    3f82:	45 0f 15 f2          	unpckhps %xmm10,%xmm14
    3f86:	f3 41 0f 58 c5       	addss  %xmm13,%xmm0
    3f8b:	f3 44 0f 58 f0       	addss  %xmm0,%xmm14
    3f90:	41 0f 28 c2          	movaps %xmm10,%xmm0
    3f94:	41 0f c6 c2 ff       	shufps $0xff,%xmm10,%xmm0
    3f99:	f3 41 0f 58 c6       	addss  %xmm14,%xmm0
  for (i=0;i<dim;i++)
    3f9e:	e9 c4 f2 ff ff       	jmpq   3267 <_Z7pspeedyP6PointsfPliP16parsec_barrier_t+0x287>
    pthread_mutex_lock(&mutex);
    3fa3:	48 8d 3d 16 b1 00 00 	lea    0xb116(%rip),%rdi        # f0c0 <_ZZ7pspeedyP6PointsfPliP16parsec_barrier_tE5mutex>
    3faa:	e8 f1 e4 ff ff       	callq  24a0 <pthread_mutex_lock@plt>
    pthread_mutex_unlock(&mutex);
    3faf:	48 8d 3d 0a b1 00 00 	lea    0xb10a(%rip),%rdi        # f0c0 <_ZZ7pspeedyP6PointsfPliP16parsec_barrier_tE5mutex>
    open = true;
    3fb6:	c6 05 3b b1 00 00 01 	movb   $0x1,0xb13b(%rip)        # f0f8 <_ZZ7pspeedyP6PointsfPliP16parsec_barrier_tE4open>
    pthread_mutex_unlock(&mutex);
    3fbd:	e8 9e e3 ff ff       	callq  2360 <pthread_mutex_unlock@plt>
    pthread_cond_broadcast(&cond);
    3fc2:	48 8d 3d b7 b0 00 00 	lea    0xb0b7(%rip),%rdi        # f080 <_ZZ7pspeedyP6PointsfPliP16parsec_barrier_tE4cond>
    3fc9:	e8 32 e3 ff ff       	callq  2300 <pthread_cond_broadcast@plt>
  pthread_barrier_wait(barrier);
    3fce:	48 8b 7c 24 30       	mov    0x30(%rsp),%rdi
    3fd3:	e8 78 71 00 00       	callq  b150 <_Z19parsec_barrier_waitP16parsec_barrier_t>
  open = false;
    3fd8:	c6 05 19 b1 00 00 00 	movb   $0x0,0xb119(%rip)        # f0f8 <_ZZ7pspeedyP6PointsfPliP16parsec_barrier_tE4open>
  for( int k = k1; k < k2; k++ )  {
    3fdf:	48 8b 74 24 38       	mov    0x38(%rsp),%rsi
    3fe4:	48 39 74 24 28       	cmp    %rsi,0x28(%rsp)
    3fe9:	0f 8e 88 06 00 00    	jle    4677 <_Z7pspeedyP6PointsfPliP16parsec_barrier_t+0x1697>
    3fef:	45 31 d2             	xor    %r10d,%r10d
    3ff2:	4c 8b 5c 24 38       	mov    0x38(%rsp),%r11
    mytotal += points->p[k].cost;
    3ff7:	48 8b 7c 24 20       	mov    0x20(%rsp),%rdi
    3ffc:	66 0f ef c0          	pxor   %xmm0,%xmm0
    4000:	4c 8b 74 24 28       	mov    0x28(%rsp),%r14
    4005:	4d 89 dc             	mov    %r11,%r12
    4008:	4c 8b 47 10          	mov    0x10(%rdi),%r8
    400c:	4d 89 df             	mov    %r11,%r15
    400f:	49 8d 53 01          	lea    0x1(%r11),%rdx
    4013:	49 f7 d4             	not    %r12
    4016:	49 c1 e7 05          	shl    $0x5,%r15
    401a:	4d 01 f4             	add    %r14,%r12
    401d:	f3 43 0f 5a 44 38 18 	cvtss2sd 0x18(%r8,%r15,1),%xmm0
    4024:	f2 0f 58 05 9c 85 00 	addsd  0x859c(%rip),%xmm0        # c5c8 <_ZTS10FileStream+0x20>
    402b:	00 
    402c:	41 83 e4 07          	and    $0x7,%r12d
  for( int k = k1; k < k2; k++ )  {
    4030:	49 39 d6             	cmp    %rdx,%r14
    4033:	0f 8e d2 01 00 00    	jle    420b <_Z7pspeedyP6PointsfPliP16parsec_barrier_t+0x122b>
    4039:	4d 85 e4             	test   %r12,%r12
    403c:	0f 84 fd 00 00 00    	je     413f <_Z7pspeedyP6PointsfPliP16parsec_barrier_t+0x115f>
    4042:	49 83 fc 01          	cmp    $0x1,%r12
    4046:	0f 84 ce 00 00 00    	je     411a <_Z7pspeedyP6PointsfPliP16parsec_barrier_t+0x113a>
    404c:	49 83 fc 02          	cmp    $0x2,%r12
    4050:	0f 84 aa 00 00 00    	je     4100 <_Z7pspeedyP6PointsfPliP16parsec_barrier_t+0x1120>
    4056:	49 83 fc 03          	cmp    $0x3,%r12
    405a:	0f 84 84 00 00 00    	je     40e4 <_Z7pspeedyP6PointsfPliP16parsec_barrier_t+0x1104>
    4060:	49 83 fc 04          	cmp    $0x4,%r12
    4064:	74 62                	je     40c8 <_Z7pspeedyP6PointsfPliP16parsec_barrier_t+0x10e8>
    4066:	49 83 fc 05          	cmp    $0x5,%r12
    406a:	74 40                	je     40ac <_Z7pspeedyP6PointsfPliP16parsec_barrier_t+0x10cc>
    406c:	49 83 fc 06          	cmp    $0x6,%r12
    4070:	74 1e                	je     4090 <_Z7pspeedyP6PointsfPliP16parsec_barrier_t+0x10b0>
    mytotal += points->p[k].cost;
    4072:	48 c1 e2 05          	shl    $0x5,%rdx
    4076:	66 45 0f ef db       	pxor   %xmm11,%xmm11
    407b:	f3 45 0f 5a 5c 10 18 	cvtss2sd 0x18(%r8,%rdx,1),%xmm11
    4082:	48 8b 54 24 38       	mov    0x38(%rsp),%rdx
    4087:	f2 41 0f 58 c3       	addsd  %xmm11,%xmm0
  for( int k = k1; k < k2; k++ )  {
    408c:	48 83 c2 02          	add    $0x2,%rdx
    mytotal += points->p[k].cost;
    4090:	49 89 d5             	mov    %rdx,%r13
    4093:	66 45 0f ef e4       	pxor   %xmm12,%xmm12
    4098:	48 83 c2 01          	add    $0x1,%rdx
    409c:	49 c1 e5 05          	shl    $0x5,%r13
    40a0:	f3 47 0f 5a 64 28 18 	cvtss2sd 0x18(%r8,%r13,1),%xmm12
    40a7:	f2 41 0f 58 c4       	addsd  %xmm12,%xmm0
    40ac:	48 89 d0             	mov    %rdx,%rax
    40af:	66 45 0f ef ed       	pxor   %xmm13,%xmm13
    40b4:	48 83 c2 01          	add    $0x1,%rdx
    40b8:	48 c1 e0 05          	shl    $0x5,%rax
    40bc:	f3 45 0f 5a 6c 00 18 	cvtss2sd 0x18(%r8,%rax,1),%xmm13
    40c3:	f2 41 0f 58 c5       	addsd  %xmm13,%xmm0
    40c8:	48 89 d3             	mov    %rdx,%rbx
    40cb:	66 45 0f ef f6       	pxor   %xmm14,%xmm14
    40d0:	48 83 c2 01          	add    $0x1,%rdx
    40d4:	48 c1 e3 05          	shl    $0x5,%rbx
    40d8:	f3 45 0f 5a 74 18 18 	cvtss2sd 0x18(%r8,%rbx,1),%xmm14
    40df:	f2 41 0f 58 c6       	addsd  %xmm14,%xmm0
    40e4:	48 89 d5             	mov    %rdx,%rbp
    40e7:	66 45 0f ef ff       	pxor   %xmm15,%xmm15
    40ec:	48 83 c2 01          	add    $0x1,%rdx
    40f0:	48 c1 e5 05          	shl    $0x5,%rbp
    40f4:	f3 45 0f 5a 7c 28 18 	cvtss2sd 0x18(%r8,%rbp,1),%xmm15
    40fb:	f2 41 0f 58 c7       	addsd  %xmm15,%xmm0
    4100:	48 89 d1             	mov    %rdx,%rcx
    4103:	66 0f ef db          	pxor   %xmm3,%xmm3
    4107:	48 83 c2 01          	add    $0x1,%rdx
    410b:	48 c1 e1 05          	shl    $0x5,%rcx
    410f:	f3 41 0f 5a 5c 08 18 	cvtss2sd 0x18(%r8,%rcx,1),%xmm3
    4116:	f2 0f 58 c3          	addsd  %xmm3,%xmm0
    411a:	49 89 d1             	mov    %rdx,%r9
    411d:	66 0f ef e4          	pxor   %xmm4,%xmm4
    4121:	48 83 c2 01          	add    $0x1,%rdx
    4125:	49 c1 e1 05          	shl    $0x5,%r9
    4129:	f3 43 0f 5a 64 08 18 	cvtss2sd 0x18(%r8,%r9,1),%xmm4
    4130:	f2 0f 58 c4          	addsd  %xmm4,%xmm0
  for( int k = k1; k < k2; k++ )  {
    4134:	48 39 54 24 28       	cmp    %rdx,0x28(%rsp)
    4139:	0f 8e cc 00 00 00    	jle    420b <_Z7pspeedyP6PointsfPliP16parsec_barrier_t+0x122b>
    mytotal += points->p[k].cost;
    413f:	66 0f ef ff          	pxor   %xmm7,%xmm7
    4143:	48 8d 7a 01          	lea    0x1(%rdx),%rdi
    4147:	66 0f ef d2          	pxor   %xmm2,%xmm2
    414b:	48 89 d6             	mov    %rdx,%rsi
    414e:	48 c1 e6 05          	shl    $0x5,%rsi
    4152:	48 c1 e7 05          	shl    $0x5,%rdi
    4156:	4c 8d 5a 02          	lea    0x2(%rdx),%r11
    415a:	66 0f ef ed          	pxor   %xmm5,%xmm5
    415e:	f3 41 0f 5a 7c 30 18 	cvtss2sd 0x18(%r8,%rsi,1),%xmm7
    4165:	f2 0f 58 c7          	addsd  %xmm7,%xmm0
    4169:	49 c1 e3 05          	shl    $0x5,%r11
    416d:	f3 41 0f 5a 54 38 18 	cvtss2sd 0x18(%r8,%rdi,1),%xmm2
    4174:	f3 43 0f 5a 6c 18 18 	cvtss2sd 0x18(%r8,%r11,1),%xmm5
    417b:	4c 8d 62 03          	lea    0x3(%rdx),%r12
    417f:	4c 8d 72 04          	lea    0x4(%rdx),%r14
    4183:	66 0f ef c9          	pxor   %xmm1,%xmm1
    4187:	49 c1 e4 05          	shl    $0x5,%r12
    418b:	49 c1 e6 05          	shl    $0x5,%r14
    418f:	4c 8d 7a 05          	lea    0x5(%rdx),%r15
    4193:	66 0f ef f6          	pxor   %xmm6,%xmm6
    4197:	f2 0f 58 c2          	addsd  %xmm2,%xmm0
    419b:	66 45 0f ef c0       	pxor   %xmm8,%xmm8
    41a0:	49 c1 e7 05          	shl    $0x5,%r15
    41a4:	4c 8d 6a 06          	lea    0x6(%rdx),%r13
    41a8:	f3 47 0f 5a 44 20 18 	cvtss2sd 0x18(%r8,%r12,1),%xmm8
    41af:	f3 43 0f 5a 4c 30 18 	cvtss2sd 0x18(%r8,%r14,1),%xmm1
    41b6:	f3 43 0f 5a 74 38 18 	cvtss2sd 0x18(%r8,%r15,1),%xmm6
    41bd:	49 c1 e5 05          	shl    $0x5,%r13
    41c1:	66 45 0f ef c9       	pxor   %xmm9,%xmm9
    41c6:	48 8d 42 07          	lea    0x7(%rdx),%rax
    41ca:	66 45 0f ef d2       	pxor   %xmm10,%xmm10
    41cf:	48 83 c2 08          	add    $0x8,%rdx
    41d3:	f2 0f 58 c5          	addsd  %xmm5,%xmm0
    41d7:	f3 47 0f 5a 4c 28 18 	cvtss2sd 0x18(%r8,%r13,1),%xmm9
    41de:	48 c1 e0 05          	shl    $0x5,%rax
    41e2:	f3 45 0f 5a 54 00 18 	cvtss2sd 0x18(%r8,%rax,1),%xmm10
    41e9:	f2 41 0f 58 c0       	addsd  %xmm8,%xmm0
    41ee:	f2 0f 58 c1          	addsd  %xmm1,%xmm0
    41f2:	f2 0f 58 c6          	addsd  %xmm6,%xmm0
    41f6:	f2 41 0f 58 c1       	addsd  %xmm9,%xmm0
    41fb:	f2 41 0f 58 c2       	addsd  %xmm10,%xmm0
  for( int k = k1; k < k2; k++ )  {
    4200:	48 39 54 24 28       	cmp    %rdx,0x28(%rsp)
    4205:	0f 8f 34 ff ff ff    	jg     413f <_Z7pspeedyP6PointsfPliP16parsec_barrier_t+0x115f>
  costs[pid] = mytotal;
    420b:	4c 8b 05 de ae 00 00 	mov    0xaede(%rip),%r8        # f0f0 <_ZZ7pspeedyP6PointsfPliP16parsec_barrier_tE5costs>
  pthread_barrier_wait(barrier);
    4212:	48 8b 7c 24 30       	mov    0x30(%rsp),%rdi
  costs[pid] = mytotal;
    4217:	f2 43 0f 11 04 10    	movsd  %xmm0,(%r8,%r10,1)
  pthread_barrier_wait(barrier);
    421d:	e8 2e 6f 00 00       	callq  b150 <_Z19parsec_barrier_waitP16parsec_barrier_t>
  if( pid == 0 )
    4222:	44 8b 54 24 5c       	mov    0x5c(%rsp),%r10d
    4227:	45 85 d2             	test   %r10d,%r10d
    422a:	0f 85 e1 01 00 00    	jne    4411 <_Z7pspeedyP6PointsfPliP16parsec_barrier_t+0x1431>
      totalcost=z*(*kcenter);
    4230:	48 8b 5c 24 60       	mov    0x60(%rsp),%rbx
    4235:	66 45 0f ef db       	pxor   %xmm11,%xmm11
    423a:	66 0f ef c0          	pxor   %xmm0,%xmm0
      for( int i = 0; i < nproc; i++ )
    423e:	44 8b 05 c3 ae 00 00 	mov    0xaec3(%rip),%r8d        # f108 <_ZL5nproc>
    4245:	48 8b 3d a4 ae 00 00 	mov    0xaea4(%rip),%rdi        # f0f0 <_ZZ7pspeedyP6PointsfPliP16parsec_barrier_tE5costs>
      totalcost=z*(*kcenter);
    424c:	f3 4c 0f 2a 1b       	cvtsi2ssq (%rbx),%xmm11
    4251:	f3 44 0f 59 5c 24 58 	mulss  0x58(%rsp),%xmm11
    4258:	f3 41 0f 5a c3       	cvtss2sd %xmm11,%xmm0
    425d:	f2 0f 11 05 9b ae 00 	movsd  %xmm0,0xae9b(%rip)        # f100 <_ZZ7pspeedyP6PointsfPliP16parsec_barrier_tE9totalcost>
    4264:	00 
      for( int i = 0; i < nproc; i++ )
    4265:	45 85 c0             	test   %r8d,%r8d
    4268:	0f 8e 2a 03 00 00    	jle    4598 <_Z7pspeedyP6PointsfPliP16parsec_barrier_t+0x15b8>
    426e:	41 83 f8 01          	cmp    $0x1,%r8d
    4272:	0f 84 1c 04 00 00    	je     4694 <_Z7pspeedyP6PointsfPliP16parsec_barrier_t+0x16b4>
    4278:	44 89 c6             	mov    %r8d,%esi
    427b:	d1 ee                	shr    %esi
    427d:	83 fe 04             	cmp    $0x4,%esi
    4280:	0f 86 b9 01 00 00    	jbe    443f <_Z7pspeedyP6PointsfPliP16parsec_barrier_t+0x145f>
    4286:	44 8d 66 fb          	lea    -0x5(%rsi),%r12d
    428a:	48 89 fd             	mov    %rdi,%rbp
    428d:	31 c9                	xor    %ecx,%ecx
    428f:	41 83 e4 fc          	and    $0xfffffffc,%r12d
    4293:	45 8d 4c 24 04       	lea    0x4(%r12),%r9d
    4298:	41 f6 c4 04          	test   $0x4,%r12b
    429c:	74 5f                	je     42fd <_Z7pspeedyP6PointsfPliP16parsec_barrier_t+0x131d>
	  totalcost += costs[i];
    429e:	f2 44 0f 10 27       	movsd  (%rdi),%xmm12
    42a3:	f2 44 0f 10 6f 08    	movsd  0x8(%rdi),%xmm13
    42a9:	48 8d 6f 40          	lea    0x40(%rdi),%rbp
    42ad:	b9 04 00 00 00       	mov    $0x4,%ecx
    42b2:	f2 44 0f 10 77 10    	movsd  0x10(%rdi),%xmm14
    42b8:	f2 44 0f 10 7f 18    	movsd  0x18(%rdi),%xmm15
    42be:	0f 18 8f d0 01 00 00 	prefetcht0 0x1d0(%rdi)
    42c5:	f2 41 0f 58 c4       	addsd  %xmm12,%xmm0
    42ca:	f2 0f 10 5f 20       	movsd  0x20(%rdi),%xmm3
    42cf:	f2 0f 10 67 28       	movsd  0x28(%rdi),%xmm4
    42d4:	f2 0f 10 7f 30       	movsd  0x30(%rdi),%xmm7
    42d9:	f2 0f 10 57 38       	movsd  0x38(%rdi),%xmm2
    42de:	f2 41 0f 58 c5       	addsd  %xmm13,%xmm0
    42e3:	f2 41 0f 58 c6       	addsd  %xmm14,%xmm0
    42e8:	f2 41 0f 58 c7       	addsd  %xmm15,%xmm0
    42ed:	f2 0f 58 c3          	addsd  %xmm3,%xmm0
    42f1:	f2 0f 58 c4          	addsd  %xmm4,%xmm0
    42f5:	f2 0f 58 c7          	addsd  %xmm7,%xmm0
    42f9:	f2 0f 58 c2          	addsd  %xmm2,%xmm0
    42fd:	f2 0f 10 6d 00       	movsd  0x0(%rbp),%xmm5
    4302:	f2 44 0f 10 45 08    	movsd  0x8(%rbp),%xmm8
    4308:	4c 8d 5d 40          	lea    0x40(%rbp),%r11
    430c:	0f 18 8d d0 01 00 00 	prefetcht0 0x1d0(%rbp)
    4313:	f2 0f 10 4d 10       	movsd  0x10(%rbp),%xmm1
    4318:	f2 0f 10 75 18       	movsd  0x18(%rbp),%xmm6
    431d:	4d 89 de             	mov    %r11,%r14
    4320:	f2 0f 58 c5          	addsd  %xmm5,%xmm0
    4324:	f2 44 0f 10 4d 20    	movsd  0x20(%rbp),%xmm9
    432a:	f2 44 0f 10 55 28    	movsd  0x28(%rbp),%xmm10
    4330:	f2 44 0f 10 5d 30    	movsd  0x30(%rbp),%xmm11
    4336:	f2 44 0f 10 65 38    	movsd  0x38(%rbp),%xmm12
    433c:	f2 41 0f 58 c0       	addsd  %xmm8,%xmm0
    4341:	f2 0f 58 c1          	addsd  %xmm1,%xmm0
    4345:	f2 0f 58 c6          	addsd  %xmm6,%xmm0
    4349:	f2 41 0f 58 c1       	addsd  %xmm9,%xmm0
    434e:	f2 41 0f 58 c2       	addsd  %xmm10,%xmm0
    4353:	f2 41 0f 58 c3       	addsd  %xmm11,%xmm0
    4358:	f2 41 0f 58 c4       	addsd  %xmm12,%xmm0
      for( int i = 0; i < nproc; i++ )
    435d:	44 39 e1             	cmp    %r12d,%ecx
    4360:	0f 84 df 00 00 00    	je     4445 <_Z7pspeedyP6PointsfPliP16parsec_barrier_t+0x1465>
	  totalcost += costs[i];
    4366:	f2 44 0f 10 6d 40    	movsd  0x40(%rbp),%xmm13
    436c:	f2 44 0f 10 75 48    	movsd  0x48(%rbp),%xmm14
    4372:	83 c1 08             	add    $0x8,%ecx
    4375:	0f 18 8d 10 02 00 00 	prefetcht0 0x210(%rbp)
    437c:	f2 45 0f 10 7b 10    	movsd  0x10(%r11),%xmm15
    4382:	f2 41 0f 10 5b 18    	movsd  0x18(%r11),%xmm3
    4388:	48 83 ed 80          	sub    $0xffffffffffffff80,%rbp
    438c:	f2 41 0f 58 c5       	addsd  %xmm13,%xmm0
    4391:	f2 41 0f 10 63 20    	movsd  0x20(%r11),%xmm4
    4397:	f2 41 0f 10 7b 28    	movsd  0x28(%r11),%xmm7
    439d:	66 41 0f 10 6b 30    	movupd 0x30(%r11),%xmm5
    43a3:	f2 41 0f 58 c6       	addsd  %xmm14,%xmm0
    43a8:	f2 41 0f 58 c7       	addsd  %xmm15,%xmm0
    43ad:	f2 0f 58 c3          	addsd  %xmm3,%xmm0
    43b1:	f2 0f 58 c4          	addsd  %xmm4,%xmm0
    43b5:	f2 0f 58 c7          	addsd  %xmm7,%xmm0
    43b9:	f2 0f 58 c5          	addsd  %xmm5,%xmm0
    43bd:	66 0f 15 ed          	unpckhpd %xmm5,%xmm5
    43c1:	f2 0f 58 c5          	addsd  %xmm5,%xmm0
      for( int i = 0; i < nproc; i++ )
    43c5:	e9 33 ff ff ff       	jmpq   42fd <_Z7pspeedyP6PointsfPliP16parsec_barrier_t+0x131d>
  pthread_barrier_wait(barrier);
    43ca:	48 8b 7c 24 30       	mov    0x30(%rsp),%rdi
    43cf:	e8 7c 6d 00 00       	callq  b150 <_Z19parsec_barrier_waitP16parsec_barrier_t>
  open = false;
    43d4:	4c 8b 74 24 68       	mov    0x68(%rsp),%r14
  for( int k = k1; k < k2; k++ )  {
    43d9:	48 8b 44 24 38       	mov    0x38(%rsp),%rax
  open = false;
    43de:	c6 05 13 ad 00 00 00 	movb   $0x0,0xad13(%rip)        # f0f8 <_ZZ7pspeedyP6PointsfPliP16parsec_barrier_tE4open>
  for( int k = k1; k < k2; k++ )  {
    43e5:	4e 8d 14 f5 00 00 00 	lea    0x0(,%r14,8),%r10
    43ec:	00 
    43ed:	48 39 44 24 28       	cmp    %rax,0x28(%rsp)
    43f2:	0f 8f fa fb ff ff    	jg     3ff2 <_Z7pspeedyP6PointsfPliP16parsec_barrier_t+0x1012>
  costs[pid] = mytotal;
    43f8:	48 8b 3d f1 ac 00 00 	mov    0xacf1(%rip),%rdi        # f0f0 <_ZZ7pspeedyP6PointsfPliP16parsec_barrier_tE5costs>
    43ff:	4a c7 04 f7 00 00 00 	movq   $0x0,(%rdi,%r14,8)
    4406:	00 
  pthread_barrier_wait(barrier);
    4407:	48 8b 7c 24 30       	mov    0x30(%rsp),%rdi
    440c:	e8 3f 6d 00 00       	callq  b150 <_Z19parsec_barrier_waitP16parsec_barrier_t>
  pthread_barrier_wait(barrier);
    4411:	48 8b 7c 24 30       	mov    0x30(%rsp),%rdi
    4416:	e8 35 6d 00 00       	callq  b150 <_Z19parsec_barrier_waitP16parsec_barrier_t>
  return(totalcost);
    441b:	66 0f ef c0          	pxor   %xmm0,%xmm0
    441f:	f2 0f 5a 05 d9 ac 00 	cvtsd2ss 0xacd9(%rip),%xmm0        # f100 <_ZZ7pspeedyP6PointsfPliP16parsec_barrier_tE9totalcost>
    4426:	00 
}
    4427:	48 83 c4 78          	add    $0x78,%rsp
    442b:	5b                   	pop    %rbx
    442c:	5d                   	pop    %rbp
    442d:	41 5c                	pop    %r12
    442f:	41 5d                	pop    %r13
    4431:	41 5e                	pop    %r14
    4433:	41 5f                	pop    %r15
    4435:	c3                   	retq   
  float result=0.0;
    4436:	66 0f ef c0          	pxor   %xmm0,%xmm0
    443a:	e9 b5 fa ff ff       	jmpq   3ef4 <_Z7pspeedyP6PointsfPliP16parsec_barrier_t+0xf14>
      for( int i = 0; i < nproc; i++ )
    443f:	49 89 fe             	mov    %rdi,%r14
    4442:	45 31 c9             	xor    %r9d,%r9d
    4445:	f2 45 0f 10 06       	movsd  (%r14),%xmm8
    444a:	45 89 cf             	mov    %r9d,%r15d
    444d:	45 8d 51 01          	lea    0x1(%r9),%r10d
    4451:	4d 8d 6e 10          	lea    0x10(%r14),%r13
    4455:	41 f7 d7             	not    %r15d
	  totalcost += costs[i];
    4458:	f2 41 0f 10 4e 08    	movsd  0x8(%r14),%xmm1
    445e:	f2 41 0f 58 c0       	addsd  %xmm8,%xmm0
    4463:	41 01 f7             	add    %esi,%r15d
    4466:	41 83 e7 07          	and    $0x7,%r15d
    446a:	f2 0f 58 c1          	addsd  %xmm1,%xmm0
      for( int i = 0; i < nproc; i++ )
    446e:	44 39 d6             	cmp    %r10d,%esi
    4471:	0f 86 07 01 00 00    	jbe    457e <_Z7pspeedyP6PointsfPliP16parsec_barrier_t+0x159e>
    4477:	45 85 ff             	test   %r15d,%r15d
    447a:	0f 84 39 01 00 00    	je     45b9 <_Z7pspeedyP6PointsfPliP16parsec_barrier_t+0x15d9>
    4480:	41 83 ff 01          	cmp    $0x1,%r15d
    4484:	0f 84 d2 00 00 00    	je     455c <_Z7pspeedyP6PointsfPliP16parsec_barrier_t+0x157c>
    448a:	41 83 ff 02          	cmp    $0x2,%r15d
    448e:	0f 84 ac 00 00 00    	je     4540 <_Z7pspeedyP6PointsfPliP16parsec_barrier_t+0x1560>
    4494:	41 83 ff 03          	cmp    $0x3,%r15d
    4498:	0f 84 86 00 00 00    	je     4524 <_Z7pspeedyP6PointsfPliP16parsec_barrier_t+0x1544>
    449e:	41 83 ff 04          	cmp    $0x4,%r15d
    44a2:	74 62                	je     4506 <_Z7pspeedyP6PointsfPliP16parsec_barrier_t+0x1526>
    44a4:	41 83 ff 05          	cmp    $0x5,%r15d
    44a8:	74 3e                	je     44e8 <_Z7pspeedyP6PointsfPliP16parsec_barrier_t+0x1508>
    44aa:	41 83 ff 06          	cmp    $0x6,%r15d
    44ae:	74 1a                	je     44ca <_Z7pspeedyP6PointsfPliP16parsec_barrier_t+0x14ea>
	  totalcost += costs[i];
    44b0:	66 41 0f 10 75 00    	movupd 0x0(%r13),%xmm6
    44b6:	45 8d 51 02          	lea    0x2(%r9),%r10d
    44ba:	4d 8d 6e 20          	lea    0x20(%r14),%r13
    44be:	f2 0f 58 c6          	addsd  %xmm6,%xmm0
    44c2:	66 0f 15 f6          	unpckhpd %xmm6,%xmm6
    44c6:	f2 0f 58 c6          	addsd  %xmm6,%xmm0
    44ca:	f2 45 0f 10 55 00    	movsd  0x0(%r13),%xmm10
    44d0:	f2 45 0f 10 5d 08    	movsd  0x8(%r13),%xmm11
    44d6:	41 83 c2 01          	add    $0x1,%r10d
    44da:	49 83 c5 10          	add    $0x10,%r13
    44de:	f2 41 0f 58 c2       	addsd  %xmm10,%xmm0
    44e3:	f2 41 0f 58 c3       	addsd  %xmm11,%xmm0
    44e8:	f2 45 0f 10 65 00    	movsd  0x0(%r13),%xmm12
    44ee:	f2 45 0f 10 6d 08    	movsd  0x8(%r13),%xmm13
    44f4:	41 83 c2 01          	add    $0x1,%r10d
    44f8:	49 83 c5 10          	add    $0x10,%r13
    44fc:	f2 41 0f 58 c4       	addsd  %xmm12,%xmm0
    4501:	f2 41 0f 58 c5       	addsd  %xmm13,%xmm0
    4506:	f2 45 0f 10 75 00    	movsd  0x0(%r13),%xmm14
    450c:	f2 45 0f 10 7d 08    	movsd  0x8(%r13),%xmm15
    4512:	41 83 c2 01          	add    $0x1,%r10d
    4516:	49 83 c5 10          	add    $0x10,%r13
    451a:	f2 41 0f 58 c6       	addsd  %xmm14,%xmm0
    451f:	f2 41 0f 58 c7       	addsd  %xmm15,%xmm0
    4524:	f2 41 0f 10 5d 00    	movsd  0x0(%r13),%xmm3
    452a:	f2 41 0f 10 65 08    	movsd  0x8(%r13),%xmm4
    4530:	41 83 c2 01          	add    $0x1,%r10d
    4534:	49 83 c5 10          	add    $0x10,%r13
    4538:	f2 0f 58 c3          	addsd  %xmm3,%xmm0
    453c:	f2 0f 58 c4          	addsd  %xmm4,%xmm0
    4540:	f2 41 0f 10 7d 00    	movsd  0x0(%r13),%xmm7
    4546:	f2 41 0f 10 6d 08    	movsd  0x8(%r13),%xmm5
    454c:	41 83 c2 01          	add    $0x1,%r10d
    4550:	49 83 c5 10          	add    $0x10,%r13
    4554:	f2 0f 58 c7          	addsd  %xmm7,%xmm0
    4558:	f2 0f 58 c5          	addsd  %xmm5,%xmm0
    455c:	f2 41 0f 10 55 00    	movsd  0x0(%r13),%xmm2
    4562:	f2 45 0f 10 45 08    	movsd  0x8(%r13),%xmm8
    4568:	41 83 c2 01          	add    $0x1,%r10d
    456c:	49 83 c5 10          	add    $0x10,%r13
    4570:	f2 0f 58 c2          	addsd  %xmm2,%xmm0
    4574:	f2 41 0f 58 c0       	addsd  %xmm8,%xmm0
      for( int i = 0; i < nproc; i++ )
    4579:	44 39 d6             	cmp    %r10d,%esi
    457c:	77 3b                	ja     45b9 <_Z7pspeedyP6PointsfPliP16parsec_barrier_t+0x15d9>
    457e:	44 89 c0             	mov    %r8d,%eax
    4581:	83 e0 fe             	and    $0xfffffffe,%eax
    4584:	44 39 c0             	cmp    %r8d,%eax
    4587:	74 07                	je     4590 <_Z7pspeedyP6PointsfPliP16parsec_barrier_t+0x15b0>
	  totalcost += costs[i];
    4589:	48 98                	cltq   
    458b:	f2 0f 58 04 c7       	addsd  (%rdi,%rax,8),%xmm0
      for( int i = 0; i < nproc; i++ )
    4590:	f2 0f 11 05 68 ab 00 	movsd  %xmm0,0xab68(%rip)        # f100 <_ZZ7pspeedyP6PointsfPliP16parsec_barrier_tE9totalcost>
    4597:	00 
      free(costs);
    4598:	e8 93 de ff ff       	callq  2430 <free@plt>
    459d:	e9 6f fe ff ff       	jmpq   4411 <_Z7pspeedyP6PointsfPliP16parsec_barrier_t+0x1431>
  for (i=0;i<dim;i++)
    45a2:	31 c0                	xor    %eax,%eax
  float result=0.0;
    45a4:	66 0f ef c0          	pxor   %xmm0,%xmm0
    45a8:	e9 f2 f8 ff ff       	jmpq   3e9f <_Z7pspeedyP6PointsfPliP16parsec_barrier_t+0xebf>
  for (i=0;i<dim;i++)
    45ad:	45 31 ed             	xor    %r13d,%r13d
    45b0:	66 0f ef c0          	pxor   %xmm0,%xmm0
    45b4:	e9 b3 f6 ff ff       	jmpq   3c6c <_Z7pspeedyP6PointsfPliP16parsec_barrier_t+0xc8c>
	  totalcost += costs[i];
    45b9:	f2 41 0f 10 4d 00    	movsd  0x0(%r13),%xmm1
    45bf:	f2 41 0f 10 75 08    	movsd  0x8(%r13),%xmm6
    45c5:	41 83 c2 08          	add    $0x8,%r10d
    45c9:	49 83 ed 80          	sub    $0xffffffffffffff80,%r13
    45cd:	f2 45 0f 10 4d 90    	movsd  -0x70(%r13),%xmm9
    45d3:	f2 45 0f 10 55 98    	movsd  -0x68(%r13),%xmm10
    45d9:	f2 0f 58 c1          	addsd  %xmm1,%xmm0
    45dd:	f2 45 0f 10 5d a0    	movsd  -0x60(%r13),%xmm11
    45e3:	f2 45 0f 10 65 a8    	movsd  -0x58(%r13),%xmm12
    45e9:	f2 45 0f 10 6d b0    	movsd  -0x50(%r13),%xmm13
    45ef:	f2 45 0f 10 75 b8    	movsd  -0x48(%r13),%xmm14
    45f5:	f2 45 0f 10 7d c0    	movsd  -0x40(%r13),%xmm15
    45fb:	f2 41 0f 10 5d c8    	movsd  -0x38(%r13),%xmm3
    4601:	f2 0f 58 c6          	addsd  %xmm6,%xmm0
    4605:	f2 41 0f 10 65 d0    	movsd  -0x30(%r13),%xmm4
    460b:	f2 41 0f 10 7d d8    	movsd  -0x28(%r13),%xmm7
    4611:	f2 41 0f 10 6d e0    	movsd  -0x20(%r13),%xmm5
    4617:	f2 41 0f 10 55 e8    	movsd  -0x18(%r13),%xmm2
    461d:	f2 45 0f 10 45 f0    	movsd  -0x10(%r13),%xmm8
    4623:	f2 41 0f 10 4d f8    	movsd  -0x8(%r13),%xmm1
    4629:	f2 41 0f 58 c1       	addsd  %xmm9,%xmm0
    462e:	f2 41 0f 58 c2       	addsd  %xmm10,%xmm0
    4633:	f2 41 0f 58 c3       	addsd  %xmm11,%xmm0
    4638:	f2 41 0f 58 c4       	addsd  %xmm12,%xmm0
    463d:	f2 41 0f 58 c5       	addsd  %xmm13,%xmm0
    4642:	f2 41 0f 58 c6       	addsd  %xmm14,%xmm0
    4647:	f2 41 0f 58 c7       	addsd  %xmm15,%xmm0
    464c:	f2 0f 58 c3          	addsd  %xmm3,%xmm0
    4650:	f2 0f 58 c4          	addsd  %xmm4,%xmm0
    4654:	f2 0f 58 c7          	addsd  %xmm7,%xmm0
    4658:	f2 0f 58 c5          	addsd  %xmm5,%xmm0
    465c:	f2 0f 58 c2          	addsd  %xmm2,%xmm0
    4660:	f2 41 0f 58 c0       	addsd  %xmm8,%xmm0
    4665:	f2 0f 58 c1          	addsd  %xmm1,%xmm0
      for( int i = 0; i < nproc; i++ )
    4669:	44 39 d6             	cmp    %r10d,%esi
    466c:	0f 87 47 ff ff ff    	ja     45b9 <_Z7pspeedyP6PointsfPliP16parsec_barrier_t+0x15d9>
    4672:	e9 07 ff ff ff       	jmpq   457e <_Z7pspeedyP6PointsfPliP16parsec_barrier_t+0x159e>
  costs[pid] = mytotal;
    4677:	48 8b 15 72 aa 00 00 	mov    0xaa72(%rip),%rdx        # f0f0 <_ZZ7pspeedyP6PointsfPliP16parsec_barrier_tE5costs>
  pthread_barrier_wait(barrier);
    467e:	48 8b 7c 24 30       	mov    0x30(%rsp),%rdi
  costs[pid] = mytotal;
    4683:	48 c7 02 00 00 00 00 	movq   $0x0,(%rdx)
  pthread_barrier_wait(barrier);
    468a:	e8 c1 6a 00 00       	callq  b150 <_Z19parsec_barrier_waitP16parsec_barrier_t>
  if( pid == 0 )
    468f:	e9 9c fb ff ff       	jmpq   4230 <_Z7pspeedyP6PointsfPliP16parsec_barrier_t+0x1250>
      for( int i = 0; i < nproc; i++ )
    4694:	31 c0                	xor    %eax,%eax
    4696:	e9 ee fe ff ff       	jmpq   4589 <_Z7pspeedyP6PointsfPliP16parsec_barrier_t+0x15a9>
    469b:	0f 1f 44 00 00       	nopl   0x0(%rax,%rax,1)

00000000000046a0 <_Z5pgainlP6PointsdPliP16parsec_barrier_t>:
{
    46a0:	f3 0f 1e fa          	endbr64 
    46a4:	41 57                	push   %r15
    46a6:	41 56                	push   %r14
    46a8:	49 89 f6             	mov    %rsi,%r14
    46ab:	41 55                	push   %r13
    46ad:	41 54                	push   %r12
    46af:	55                   	push   %rbp
    46b0:	53                   	push   %rbx
    46b1:	89 cb                	mov    %ecx,%ebx
  long k1 = bsize * pid;
    46b3:	48 63 eb             	movslq %ebx,%rbp
{
    46b6:	48 81 ec 98 00 00 00 	sub    $0x98,%rsp
    46bd:	48 89 7c 24 48       	mov    %rdi,0x48(%rsp)
    46c2:	4c 89 c7             	mov    %r8,%rdi
    46c5:	48 89 74 24 50       	mov    %rsi,0x50(%rsp)
    46ca:	48 89 54 24 68       	mov    %rdx,0x68(%rsp)
    46cf:	89 4c 24 34          	mov    %ecx,0x34(%rsp)
    46d3:	4c 89 44 24 10       	mov    %r8,0x10(%rsp)
    46d8:	f2 0f 11 44 24 18    	movsd  %xmm0,0x18(%rsp)
  pthread_barrier_wait(barrier);
    46de:	e8 6d 6a 00 00       	callq  b150 <_Z19parsec_barrier_waitP16parsec_barrier_t>
  long bsize = points->num/nproc;
    46e3:	4d 8b 3e             	mov    (%r14),%r15
    46e6:	48 63 35 1b aa 00 00 	movslq 0xaa1b(%rip),%rsi        # f108 <_ZL5nproc>
    46ed:	4c 89 f8             	mov    %r15,%rax
  if( pid == nproc-1 ) k2 = points->num;
    46f0:	44 8d 46 ff          	lea    -0x1(%rsi),%r8d
  long bsize = points->num/nproc;
    46f4:	48 89 f1             	mov    %rsi,%rcx
    46f7:	48 99                	cqto   
    46f9:	48 f7 fe             	idiv   %rsi
  long k1 = bsize * pid;
    46fc:	48 0f af e8          	imul   %rax,%rbp
  long bsize = points->num/nproc;
    4700:	49 89 c5             	mov    %rax,%r13
  long k1 = bsize * pid;
    4703:	48 89 6c 24 58       	mov    %rbp,0x58(%rsp)
  if( pid == nproc-1 ) k2 = points->num;
    4708:	41 39 d8             	cmp    %ebx,%r8d
    470b:	0f 84 8e 18 00 00    	je     5f9f <_Z5pgainlP6PointsdPliP16parsec_barrier_t+0x18ff>
  long k2 = k1 + bsize;
    4711:	4c 8d 3c 28          	lea    (%rax,%rbp,1),%r15
  int stride = *numcenters+2;
    4715:	4c 8b 4c 24 68       	mov    0x68(%rsp),%r9
    471a:	4d 8b 11             	mov    (%r9),%r10
    471d:	41 8d 6a 02          	lea    0x2(%r10),%ebp
  if( stride % cl != 0 ) { 
    4721:	41 89 eb             	mov    %ebp,%r11d
    4724:	41 c1 fb 1f          	sar    $0x1f,%r11d
    4728:	41 c1 eb 1e          	shr    $0x1e,%r11d
    472c:	46 8d 64 1d 00       	lea    0x0(%rbp,%r11,1),%r12d
    4731:	41 83 e4 03          	and    $0x3,%r12d
    4735:	45 39 dc             	cmp    %r11d,%r12d
    4738:	74 14                	je     474e <_Z5pgainlP6PointsdPliP16parsec_barrier_t+0xae>
    stride = cl * ( stride / cl + 1);
    473a:	41 83 c2 05          	add    $0x5,%r10d
    473e:	85 ed                	test   %ebp,%ebp
    4740:	41 0f 48 ea          	cmovs  %r10d,%ebp
    4744:	c1 fd 02             	sar    $0x2,%ebp
    4747:	8d 2c ad 04 00 00 00 	lea    0x4(,%rbp,4),%ebp
  int K = stride -2 ; // K==*numcenters
    474e:	8b 74 24 34          	mov    0x34(%rsp),%esi
    4752:	48 63 5c 24 58       	movslq 0x58(%rsp),%rbx
    4757:	44 8d 75 fe          	lea    -0x2(%rbp),%r14d
    475b:	44 89 74 24 70       	mov    %r14d,0x70(%rsp)
  if( pid==0 )    { 
    4760:	89 f0                	mov    %esi,%eax
    4762:	48 89 5c 24 08       	mov    %rbx,0x8(%rsp)
    4767:	48 63 dd             	movslq %ebp,%rbx
    476a:	0f af c5             	imul   %ebp,%eax
    476d:	48 c1 e3 03          	shl    $0x3,%rbx
    4771:	4c 63 e0             	movslq %eax,%r12
    4774:	89 44 24 74          	mov    %eax,0x74(%rsp)
    4778:	4a 8d 14 e5 00 00 00 	lea    0x0(,%r12,8),%rdx
    477f:	00 
    4780:	48 89 54 24 28       	mov    %rdx,0x28(%rsp)
    4785:	85 f6                	test   %esi,%esi
    4787:	0f 84 1f 18 00 00    	je     5fac <_Z5pgainlP6PointsdPliP16parsec_barrier_t+0x190c>
  pthread_barrier_wait(barrier);
    478d:	48 8b 7c 24 10       	mov    0x10(%rsp),%rdi
    4792:	e8 b9 69 00 00       	callq  b150 <_Z19parsec_barrier_waitP16parsec_barrier_t>
  for( int i = k1; i < k2; i++ ) {
    4797:	4c 3b 7c 24 08       	cmp    0x8(%rsp),%r15
    479c:	0f 8e 1b 19 00 00    	jle    60bd <_Z5pgainlP6PointsdPliP16parsec_barrier_t+0x1a1d>
    47a2:	48 8b 74 24 08       	mov    0x8(%rsp),%rsi
    if( is_center[i] ) {
    47a7:	4c 8b 15 6a a9 00 00 	mov    0xa96a(%rip),%r10        # f118 <_ZL9is_center>
  int count = 0;
    47ae:	31 c9                	xor    %ecx,%ecx
      center_table[i] = count++;
    47b0:	4c 8b 1d 59 a9 00 00 	mov    0xa959(%rip),%r11        # f110 <_ZL12center_table>
    47b7:	48 89 f2             	mov    %rsi,%rdx
    47ba:	48 f7 d2             	not    %rdx
    47bd:	4c 01 fa             	add    %r15,%rdx
    47c0:	83 e2 07             	and    $0x7,%edx
    if( is_center[i] ) {
    47c3:	41 80 3c 32 00       	cmpb   $0x0,(%r10,%rsi,1)
    47c8:	0f 85 2f 04 00 00    	jne    4bfd <_Z5pgainlP6PointsdPliP16parsec_barrier_t+0x55d>
  for( int i = k1; i < k2; i++ ) {
    47ce:	48 8b 44 24 08       	mov    0x8(%rsp),%rax
    47d3:	48 83 c0 01          	add    $0x1,%rax
    47d7:	49 39 c7             	cmp    %rax,%r15
    47da:	0f 8e 48 01 00 00    	jle    4928 <_Z5pgainlP6PointsdPliP16parsec_barrier_t+0x288>
    47e0:	48 85 d2             	test   %rdx,%rdx
    47e3:	0f 84 9f 00 00 00    	je     4888 <_Z5pgainlP6PointsdPliP16parsec_barrier_t+0x1e8>
    47e9:	48 83 fa 01          	cmp    $0x1,%rdx
    47ed:	74 7e                	je     486d <_Z5pgainlP6PointsdPliP16parsec_barrier_t+0x1cd>
    47ef:	48 83 fa 02          	cmp    $0x2,%rdx
    47f3:	74 69                	je     485e <_Z5pgainlP6PointsdPliP16parsec_barrier_t+0x1be>
    47f5:	48 83 fa 03          	cmp    $0x3,%rdx
    47f9:	74 51                	je     484c <_Z5pgainlP6PointsdPliP16parsec_barrier_t+0x1ac>
    47fb:	48 83 fa 04          	cmp    $0x4,%rdx
    47ff:	74 3c                	je     483d <_Z5pgainlP6PointsdPliP16parsec_barrier_t+0x19d>
    4801:	48 83 fa 05          	cmp    $0x5,%rdx
    4805:	74 27                	je     482e <_Z5pgainlP6PointsdPliP16parsec_barrier_t+0x18e>
    4807:	48 83 fa 06          	cmp    $0x6,%rdx
    480b:	74 0f                	je     481c <_Z5pgainlP6PointsdPliP16parsec_barrier_t+0x17c>
    if( is_center[i] ) {
    480d:	41 80 3c 02 00       	cmpb   $0x0,(%r10,%rax,1)
    4812:	0f 85 20 19 00 00    	jne    6138 <_Z5pgainlP6PointsdPliP16parsec_barrier_t+0x1a98>
  for( int i = k1; i < k2; i++ ) {
    4818:	48 83 c0 01          	add    $0x1,%rax
    if( is_center[i] ) {
    481c:	41 80 3c 02 00       	cmpb   $0x0,(%r10,%rax,1)
    4821:	74 07                	je     482a <_Z5pgainlP6PointsdPliP16parsec_barrier_t+0x18a>
      center_table[i] = count++;
    4823:	41 89 0c 83          	mov    %ecx,(%r11,%rax,4)
    4827:	83 c1 01             	add    $0x1,%ecx
  for( int i = k1; i < k2; i++ ) {
    482a:	48 83 c0 01          	add    $0x1,%rax
    if( is_center[i] ) {
    482e:	41 80 3c 02 00       	cmpb   $0x0,(%r10,%rax,1)
    4833:	0f 85 51 18 00 00    	jne    608a <_Z5pgainlP6PointsdPliP16parsec_barrier_t+0x19ea>
  for( int i = k1; i < k2; i++ ) {
    4839:	48 83 c0 01          	add    $0x1,%rax
    if( is_center[i] ) {
    483d:	41 80 3c 02 00       	cmpb   $0x0,(%r10,%rax,1)
    4842:	0f 85 03 18 00 00    	jne    604b <_Z5pgainlP6PointsdPliP16parsec_barrier_t+0x19ab>
  for( int i = k1; i < k2; i++ ) {
    4848:	48 83 c0 01          	add    $0x1,%rax
    if( is_center[i] ) {
    484c:	41 80 3c 02 00       	cmpb   $0x0,(%r10,%rax,1)
    4851:	74 07                	je     485a <_Z5pgainlP6PointsdPliP16parsec_barrier_t+0x1ba>
      center_table[i] = count++;
    4853:	41 89 0c 83          	mov    %ecx,(%r11,%rax,4)
    4857:	83 c1 01             	add    $0x1,%ecx
  for( int i = k1; i < k2; i++ ) {
    485a:	48 83 c0 01          	add    $0x1,%rax
    if( is_center[i] ) {
    485e:	41 80 3c 02 00       	cmpb   $0x0,(%r10,%rax,1)
    4863:	0f 85 fb 0e 00 00    	jne    5764 <_Z5pgainlP6PointsdPliP16parsec_barrier_t+0x10c4>
  for( int i = k1; i < k2; i++ ) {
    4869:	48 83 c0 01          	add    $0x1,%rax
    if( is_center[i] ) {
    486d:	41 80 3c 02 00       	cmpb   $0x0,(%r10,%rax,1)
    4872:	74 07                	je     487b <_Z5pgainlP6PointsdPliP16parsec_barrier_t+0x1db>
      center_table[i] = count++;
    4874:	41 89 0c 83          	mov    %ecx,(%r11,%rax,4)
    4878:	83 c1 01             	add    $0x1,%ecx
  for( int i = k1; i < k2; i++ ) {
    487b:	48 83 c0 01          	add    $0x1,%rax
    487f:	49 39 c7             	cmp    %rax,%r15
    4882:	0f 8e a0 00 00 00    	jle    4928 <_Z5pgainlP6PointsdPliP16parsec_barrier_t+0x288>
    if( is_center[i] ) {
    4888:	41 80 3c 02 00       	cmpb   $0x0,(%r10,%rax,1)
    488d:	74 07                	je     4896 <_Z5pgainlP6PointsdPliP16parsec_barrier_t+0x1f6>
      center_table[i] = count++;
    488f:	41 89 0c 83          	mov    %ecx,(%r11,%rax,4)
    4893:	83 c1 01             	add    $0x1,%ecx
    if( is_center[i] ) {
    4896:	41 80 7c 02 01 00    	cmpb   $0x0,0x1(%r10,%rax,1)
    489c:	4c 8d 70 01          	lea    0x1(%rax),%r14
    48a0:	74 07                	je     48a9 <_Z5pgainlP6PointsdPliP16parsec_barrier_t+0x209>
      center_table[i] = count++;
    48a2:	43 89 0c b3          	mov    %ecx,(%r11,%r14,4)
    48a6:	83 c1 01             	add    $0x1,%ecx
    if( is_center[i] ) {
    48a9:	43 80 7c 32 01 00    	cmpb   $0x0,0x1(%r10,%r14,1)
    48af:	49 8d 46 01          	lea    0x1(%r14),%rax
    48b3:	74 07                	je     48bc <_Z5pgainlP6PointsdPliP16parsec_barrier_t+0x21c>
      center_table[i] = count++;
    48b5:	41 89 0c 83          	mov    %ecx,(%r11,%rax,4)
    48b9:	83 c1 01             	add    $0x1,%ecx
    if( is_center[i] ) {
    48bc:	43 80 7c 32 02 00    	cmpb   $0x0,0x2(%r10,%r14,1)
    48c2:	49 8d 7e 02          	lea    0x2(%r14),%rdi
    48c6:	74 07                	je     48cf <_Z5pgainlP6PointsdPliP16parsec_barrier_t+0x22f>
      center_table[i] = count++;
    48c8:	41 89 0c bb          	mov    %ecx,(%r11,%rdi,4)
    48cc:	83 c1 01             	add    $0x1,%ecx
    if( is_center[i] ) {
    48cf:	43 80 7c 32 03 00    	cmpb   $0x0,0x3(%r10,%r14,1)
    48d5:	4d 8d 46 03          	lea    0x3(%r14),%r8
    48d9:	74 07                	je     48e2 <_Z5pgainlP6PointsdPliP16parsec_barrier_t+0x242>
      center_table[i] = count++;
    48db:	43 89 0c 83          	mov    %ecx,(%r11,%r8,4)
    48df:	83 c1 01             	add    $0x1,%ecx
    if( is_center[i] ) {
    48e2:	43 80 7c 32 04 00    	cmpb   $0x0,0x4(%r10,%r14,1)
    48e8:	4d 8d 4e 04          	lea    0x4(%r14),%r9
    48ec:	74 07                	je     48f5 <_Z5pgainlP6PointsdPliP16parsec_barrier_t+0x255>
      center_table[i] = count++;
    48ee:	43 89 0c 8b          	mov    %ecx,(%r11,%r9,4)
    48f2:	83 c1 01             	add    $0x1,%ecx
    if( is_center[i] ) {
    48f5:	43 80 7c 32 05 00    	cmpb   $0x0,0x5(%r10,%r14,1)
    48fb:	49 8d 76 05          	lea    0x5(%r14),%rsi
    48ff:	74 07                	je     4908 <_Z5pgainlP6PointsdPliP16parsec_barrier_t+0x268>
      center_table[i] = count++;
    4901:	41 89 0c b3          	mov    %ecx,(%r11,%rsi,4)
    4905:	83 c1 01             	add    $0x1,%ecx
    if( is_center[i] ) {
    4908:	43 80 7c 32 06 00    	cmpb   $0x0,0x6(%r10,%r14,1)
    490e:	49 8d 56 06          	lea    0x6(%r14),%rdx
    4912:	74 07                	je     491b <_Z5pgainlP6PointsdPliP16parsec_barrier_t+0x27b>
      center_table[i] = count++;
    4914:	41 89 0c 93          	mov    %ecx,(%r11,%rdx,4)
    4918:	83 c1 01             	add    $0x1,%ecx
  for( int i = k1; i < k2; i++ ) {
    491b:	49 8d 46 07          	lea    0x7(%r14),%rax
    491f:	49 39 c7             	cmp    %rax,%r15
    4922:	0f 8f 60 ff ff ff    	jg     4888 <_Z5pgainlP6PointsdPliP16parsec_barrier_t+0x1e8>
  work_mem[pid*stride] = count;
    4928:	66 0f ef c0          	pxor   %xmm0,%xmm0
    492c:	4c 8b 15 3d a7 00 00 	mov    0xa73d(%rip),%r10        # f070 <_ZZ5pgainlP6PointsdPliP16parsec_barrier_tE8work_mem>
  pthread_barrier_wait(barrier);
    4933:	48 8b 7c 24 10       	mov    0x10(%rsp),%rdi
  work_mem[pid*stride] = count;
    4938:	f2 0f 2a c1          	cvtsi2sd %ecx,%xmm0
    493c:	f2 43 0f 11 04 e2    	movsd  %xmm0,(%r10,%r12,8)
  pthread_barrier_wait(barrier);
    4942:	e8 09 68 00 00       	callq  b150 <_Z19parsec_barrier_waitP16parsec_barrier_t>
  if( pid == 0 ) {
    4947:	44 8b 64 24 34       	mov    0x34(%rsp),%r12d
    494c:	45 85 e4             	test   %r12d,%r12d
    494f:	0f 85 ba 02 00 00    	jne    4c0f <_Z5pgainlP6PointsdPliP16parsec_barrier_t+0x56f>
    for( int p = 0; p < nproc; p++ ) {
    4955:	8b 0d ad a7 00 00    	mov    0xa7ad(%rip),%ecx        # f108 <_ZL5nproc>
    495b:	85 c9                	test   %ecx,%ecx
    495d:	0f 8e ac 02 00 00    	jle    4c0f <_Z5pgainlP6PointsdPliP16parsec_barrier_t+0x56f>
    4963:	89 cf                	mov    %ecx,%edi
    4965:	4c 8b 35 04 a7 00 00 	mov    0xa704(%rip),%r14        # f070 <_ZZ5pgainlP6PointsdPliP16parsec_barrier_tE8work_mem>
    496c:	45 31 c9             	xor    %r9d,%r9d
    int accum = 0;
    496f:	45 31 c0             	xor    %r8d,%r8d
    4972:	83 e7 07             	and    $0x7,%edi
    4975:	0f 84 f2 00 00 00    	je     4a6d <_Z5pgainlP6PointsdPliP16parsec_barrier_t+0x3cd>
    497b:	83 ff 01             	cmp    $0x1,%edi
    497e:	0f 84 c3 00 00 00    	je     4a47 <_Z5pgainlP6PointsdPliP16parsec_barrier_t+0x3a7>
    4984:	83 ff 02             	cmp    $0x2,%edi
    4987:	0f 84 9d 00 00 00    	je     4a2a <_Z5pgainlP6PointsdPliP16parsec_barrier_t+0x38a>
    498d:	83 ff 03             	cmp    $0x3,%edi
    4990:	74 7b                	je     4a0d <_Z5pgainlP6PointsdPliP16parsec_barrier_t+0x36d>
    4992:	83 ff 04             	cmp    $0x4,%edi
    4995:	74 59                	je     49f0 <_Z5pgainlP6PointsdPliP16parsec_barrier_t+0x350>
    4997:	83 ff 05             	cmp    $0x5,%edi
    499a:	74 37                	je     49d3 <_Z5pgainlP6PointsdPliP16parsec_barrier_t+0x333>
    499c:	83 ff 06             	cmp    $0x6,%edi
    499f:	74 15                	je     49b6 <_Z5pgainlP6PointsdPliP16parsec_barrier_t+0x316>
      int tmp = (int)work_mem[p*stride];
    49a1:	f2 45 0f 2c 06       	cvttsd2si (%r14),%r8d
    for( int p = 0; p < nproc; p++ ) {
    49a6:	41 b9 01 00 00 00    	mov    $0x1,%r9d
      work_mem[p*stride] = accum;
    49ac:	49 c7 06 00 00 00 00 	movq   $0x0,(%r14)
    for( int p = 0; p < nproc; p++ ) {
    49b3:	49 01 de             	add    %rbx,%r14
      work_mem[p*stride] = accum;
    49b6:	66 0f ef c9          	pxor   %xmm1,%xmm1
      int tmp = (int)work_mem[p*stride];
    49ba:	f2 41 0f 2c 36       	cvttsd2si (%r14),%esi
    for( int p = 0; p < nproc; p++ ) {
    49bf:	41 83 c1 01          	add    $0x1,%r9d
      work_mem[p*stride] = accum;
    49c3:	f2 41 0f 2a c8       	cvtsi2sd %r8d,%xmm1
      accum += tmp;
    49c8:	41 01 f0             	add    %esi,%r8d
      work_mem[p*stride] = accum;
    49cb:	f2 41 0f 11 0e       	movsd  %xmm1,(%r14)
    for( int p = 0; p < nproc; p++ ) {
    49d0:	49 01 de             	add    %rbx,%r14
      work_mem[p*stride] = accum;
    49d3:	66 0f ef d2          	pxor   %xmm2,%xmm2
      int tmp = (int)work_mem[p*stride];
    49d7:	f2 41 0f 2c 16       	cvttsd2si (%r14),%edx
    for( int p = 0; p < nproc; p++ ) {
    49dc:	41 83 c1 01          	add    $0x1,%r9d
      work_mem[p*stride] = accum;
    49e0:	f2 41 0f 2a d0       	cvtsi2sd %r8d,%xmm2
      accum += tmp;
    49e5:	41 01 d0             	add    %edx,%r8d
      work_mem[p*stride] = accum;
    49e8:	f2 41 0f 11 16       	movsd  %xmm2,(%r14)
    for( int p = 0; p < nproc; p++ ) {
    49ed:	49 01 de             	add    %rbx,%r14
      work_mem[p*stride] = accum;
    49f0:	66 0f ef db          	pxor   %xmm3,%xmm3
      int tmp = (int)work_mem[p*stride];
    49f4:	f2 41 0f 2c 06       	cvttsd2si (%r14),%eax
    for( int p = 0; p < nproc; p++ ) {
    49f9:	41 83 c1 01          	add    $0x1,%r9d
      work_mem[p*stride] = accum;
    49fd:	f2 41 0f 2a d8       	cvtsi2sd %r8d,%xmm3
      accum += tmp;
    4a02:	41 01 c0             	add    %eax,%r8d
      work_mem[p*stride] = accum;
    4a05:	f2 41 0f 11 1e       	movsd  %xmm3,(%r14)
    for( int p = 0; p < nproc; p++ ) {
    4a0a:	49 01 de             	add    %rbx,%r14
      work_mem[p*stride] = accum;
    4a0d:	66 0f ef e4          	pxor   %xmm4,%xmm4
      int tmp = (int)work_mem[p*stride];
    4a11:	f2 45 0f 2c 16       	cvttsd2si (%r14),%r10d
    for( int p = 0; p < nproc; p++ ) {
    4a16:	41 83 c1 01          	add    $0x1,%r9d
      work_mem[p*stride] = accum;
    4a1a:	f2 41 0f 2a e0       	cvtsi2sd %r8d,%xmm4
      accum += tmp;
    4a1f:	45 01 d0             	add    %r10d,%r8d
      work_mem[p*stride] = accum;
    4a22:	f2 41 0f 11 26       	movsd  %xmm4,(%r14)
    for( int p = 0; p < nproc; p++ ) {
    4a27:	49 01 de             	add    %rbx,%r14
      work_mem[p*stride] = accum;
    4a2a:	66 0f ef ed          	pxor   %xmm5,%xmm5
      int tmp = (int)work_mem[p*stride];
    4a2e:	f2 45 0f 2c 26       	cvttsd2si (%r14),%r12d
    for( int p = 0; p < nproc; p++ ) {
    4a33:	41 83 c1 01          	add    $0x1,%r9d
      work_mem[p*stride] = accum;
    4a37:	f2 41 0f 2a e8       	cvtsi2sd %r8d,%xmm5
      accum += tmp;
    4a3c:	45 01 e0             	add    %r12d,%r8d
      work_mem[p*stride] = accum;
    4a3f:	f2 41 0f 11 2e       	movsd  %xmm5,(%r14)
    for( int p = 0; p < nproc; p++ ) {
    4a44:	49 01 de             	add    %rbx,%r14
      work_mem[p*stride] = accum;
    4a47:	66 0f ef f6          	pxor   %xmm6,%xmm6
      int tmp = (int)work_mem[p*stride];
    4a4b:	f2 45 0f 2c 1e       	cvttsd2si (%r14),%r11d
    for( int p = 0; p < nproc; p++ ) {
    4a50:	41 83 c1 01          	add    $0x1,%r9d
      work_mem[p*stride] = accum;
    4a54:	f2 41 0f 2a f0       	cvtsi2sd %r8d,%xmm6
      accum += tmp;
    4a59:	45 01 d8             	add    %r11d,%r8d
      work_mem[p*stride] = accum;
    4a5c:	f2 41 0f 11 36       	movsd  %xmm6,(%r14)
    for( int p = 0; p < nproc; p++ ) {
    4a61:	49 01 de             	add    %rbx,%r14
    4a64:	44 39 c9             	cmp    %r9d,%ecx
    4a67:	0f 84 dc 00 00 00    	je     4b49 <_Z5pgainlP6PointsdPliP16parsec_barrier_t+0x4a9>
      work_mem[p*stride] = accum;
    4a6d:	66 0f ef ff          	pxor   %xmm7,%xmm7
      int tmp = (int)work_mem[p*stride];
    4a71:	f2 41 0f 2c 3e       	cvttsd2si (%r14),%edi
      work_mem[p*stride] = accum;
    4a76:	66 45 0f ef c0       	pxor   %xmm8,%xmm8
    for( int p = 0; p < nproc; p++ ) {
    4a7b:	41 83 c1 08          	add    $0x8,%r9d
      work_mem[p*stride] = accum;
    4a7f:	f2 41 0f 2a f8       	cvtsi2sd %r8d,%xmm7
    4a84:	66 45 0f ef c9       	pxor   %xmm9,%xmm9
    4a89:	66 45 0f ef d2       	pxor   %xmm10,%xmm10
    4a8e:	66 45 0f ef db       	pxor   %xmm11,%xmm11
    4a93:	66 45 0f ef e4       	pxor   %xmm12,%xmm12
    4a98:	66 45 0f ef ed       	pxor   %xmm13,%xmm13
    4a9d:	66 45 0f ef f6       	pxor   %xmm14,%xmm14
      accum += tmp;
    4aa2:	41 01 f8             	add    %edi,%r8d
      work_mem[p*stride] = accum;
    4aa5:	f2 41 0f 11 3e       	movsd  %xmm7,(%r14)
    for( int p = 0; p < nproc; p++ ) {
    4aaa:	49 01 de             	add    %rbx,%r14
      work_mem[p*stride] = accum;
    4aad:	f2 45 0f 2a c0       	cvtsi2sd %r8d,%xmm8
      int tmp = (int)work_mem[p*stride];
    4ab2:	f2 41 0f 2c 36       	cvttsd2si (%r14),%esi
      work_mem[p*stride] = accum;
    4ab7:	f2 45 0f 11 06       	movsd  %xmm8,(%r14)
      accum += tmp;
    4abc:	49 01 de             	add    %rbx,%r14
    4abf:	41 01 f0             	add    %esi,%r8d
      int tmp = (int)work_mem[p*stride];
    4ac2:	f2 41 0f 2c 16       	cvttsd2si (%r14),%edx
      work_mem[p*stride] = accum;
    4ac7:	f2 45 0f 2a c8       	cvtsi2sd %r8d,%xmm9
      accum += tmp;
    4acc:	41 01 d0             	add    %edx,%r8d
      work_mem[p*stride] = accum;
    4acf:	f2 45 0f 11 0e       	movsd  %xmm9,(%r14)
    for( int p = 0; p < nproc; p++ ) {
    4ad4:	49 01 de             	add    %rbx,%r14
      work_mem[p*stride] = accum;
    4ad7:	f2 45 0f 2a d0       	cvtsi2sd %r8d,%xmm10
      int tmp = (int)work_mem[p*stride];
    4adc:	f2 41 0f 2c 06       	cvttsd2si (%r14),%eax
      work_mem[p*stride] = accum;
    4ae1:	f2 45 0f 11 16       	movsd  %xmm10,(%r14)
      accum += tmp;
    4ae6:	49 01 de             	add    %rbx,%r14
    4ae9:	41 01 c0             	add    %eax,%r8d
      int tmp = (int)work_mem[p*stride];
    4aec:	f2 45 0f 2c 16       	cvttsd2si (%r14),%r10d
      work_mem[p*stride] = accum;
    4af1:	f2 45 0f 2a d8       	cvtsi2sd %r8d,%xmm11
      accum += tmp;
    4af6:	45 01 d0             	add    %r10d,%r8d
      work_mem[p*stride] = accum;
    4af9:	f2 45 0f 11 1e       	movsd  %xmm11,(%r14)
    for( int p = 0; p < nproc; p++ ) {
    4afe:	49 01 de             	add    %rbx,%r14
      work_mem[p*stride] = accum;
    4b01:	f2 45 0f 2a e0       	cvtsi2sd %r8d,%xmm12
      int tmp = (int)work_mem[p*stride];
    4b06:	f2 45 0f 2c 26       	cvttsd2si (%r14),%r12d
      work_mem[p*stride] = accum;
    4b0b:	f2 45 0f 11 26       	movsd  %xmm12,(%r14)
      accum += tmp;
    4b10:	49 01 de             	add    %rbx,%r14
    4b13:	45 01 e0             	add    %r12d,%r8d
      int tmp = (int)work_mem[p*stride];
    4b16:	f2 45 0f 2c 1e       	cvttsd2si (%r14),%r11d
      work_mem[p*stride] = accum;
    4b1b:	f2 45 0f 2a e8       	cvtsi2sd %r8d,%xmm13
      accum += tmp;
    4b20:	45 01 d8             	add    %r11d,%r8d
      work_mem[p*stride] = accum;
    4b23:	f2 45 0f 11 2e       	movsd  %xmm13,(%r14)
    for( int p = 0; p < nproc; p++ ) {
    4b28:	49 01 de             	add    %rbx,%r14
      work_mem[p*stride] = accum;
    4b2b:	f2 45 0f 2a f0       	cvtsi2sd %r8d,%xmm14
      int tmp = (int)work_mem[p*stride];
    4b30:	f2 41 0f 2c 3e       	cvttsd2si (%r14),%edi
      work_mem[p*stride] = accum;
    4b35:	f2 45 0f 11 36       	movsd  %xmm14,(%r14)
      accum += tmp;
    4b3a:	49 01 de             	add    %rbx,%r14
    4b3d:	41 01 f8             	add    %edi,%r8d
    for( int p = 0; p < nproc; p++ ) {
    4b40:	44 39 c9             	cmp    %r9d,%ecx
    4b43:	0f 85 24 ff ff ff    	jne    4a6d <_Z5pgainlP6PointsdPliP16parsec_barrier_t+0x3cd>
  pthread_barrier_wait(barrier);
    4b49:	48 8b 7c 24 10       	mov    0x10(%rsp),%rdi
    4b4e:	e8 fd 65 00 00       	callq  b150 <_Z19parsec_barrier_waitP16parsec_barrier_t>
  for( int i = k1; i < k2; i++ ) {
    4b53:	4c 3b 7c 24 08       	cmp    0x8(%rsp),%r15
    4b58:	0f 8f bb 00 00 00    	jg     4c19 <_Z5pgainlP6PointsdPliP16parsec_barrier_t+0x579>
  memset(switch_membership + k1, 0, (k2-k1)*sizeof(bool));
    4b5e:	48 8b 7c 24 58       	mov    0x58(%rsp),%rdi
  return __builtin___memset_chk (__dest, __ch, __len, __bos0 (__dest));
    4b63:	4c 89 ea             	mov    %r13,%rdx
    4b66:	31 f6                	xor    %esi,%esi
    4b68:	48 03 3d b1 a5 00 00 	add    0xa5b1(%rip),%rdi        # f120 <_ZL17switch_membership>
    4b6f:	e8 ac d7 ff ff       	callq  2320 <memset@plt>
  memset(work_mem+pid*stride, 0, stride*sizeof(double));
    4b74:	4c 8b 64 24 28       	mov    0x28(%rsp),%r12
    4b79:	48 89 da             	mov    %rbx,%rdx
    4b7c:	31 f6                	xor    %esi,%esi
    4b7e:	4c 8b 35 eb a4 00 00 	mov    0xa4eb(%rip),%r14        # f070 <_ZZ5pgainlP6PointsdPliP16parsec_barrier_tE8work_mem>
    4b85:	4b 8d 3c 26          	lea    (%r14,%r12,1),%rdi
    4b89:	e8 92 d7 ff ff       	callq  2320 <memset@plt>
  if( pid== 0 ) memset(work_mem+nproc*stride,0,stride*sizeof(double));
    4b8e:	8b 05 74 a5 00 00    	mov    0xa574(%rip),%eax        # f108 <_ZL5nproc>
    4b94:	31 f6                	xor    %esi,%esi
    4b96:	48 89 da             	mov    %rbx,%rdx
    4b99:	0f af c5             	imul   %ebp,%eax
    4b9c:	48 98                	cltq   
    4b9e:	49 8d 3c c6          	lea    (%r14,%rax,8),%rdi
    4ba2:	e8 79 d7 ff ff       	callq  2320 <memset@plt>
  pthread_barrier_wait(barrier);
    4ba7:	48 8b 7c 24 10       	mov    0x10(%rsp),%rdi
    4bac:	e8 9f 65 00 00       	callq  b150 <_Z19parsec_barrier_waitP16parsec_barrier_t>
  double* gl_lower = &work_mem[nproc*stride];
    4bb1:	0f af 2d 50 a5 00 00 	imul   0xa550(%rip),%ebp        # f108 <_ZL5nproc>
  double* lower = &work_mem[pid*stride];
    4bb8:	4c 8b 35 b1 a4 00 00 	mov    0xa4b1(%rip),%r14        # f070 <_ZZ5pgainlP6PointsdPliP16parsec_barrier_tE8work_mem>
    4bbf:	4c 89 74 24 40       	mov    %r14,0x40(%rsp)
  double* gl_lower = &work_mem[nproc*stride];
    4bc4:	4c 63 cd             	movslq %ebp,%r9
    4bc7:	4b 8d 34 ce          	lea    (%r14,%r9,8),%rsi
    4bcb:	48 89 74 24 60       	mov    %rsi,0x60(%rsp)
  for ( i = k1; i < k2; i++ ) {
    4bd0:	4c 3b 7c 24 08       	cmp    0x8(%rsp),%r15
    4bd5:	0f 8f 53 02 00 00    	jg     4e2e <_Z5pgainlP6PointsdPliP16parsec_barrier_t+0x78e>
  pthread_barrier_wait(barrier);
    4bdb:	48 8b 7c 24 10       	mov    0x10(%rsp),%rdi
    4be0:	e8 6b 65 00 00       	callq  b150 <_Z19parsec_barrier_waitP16parsec_barrier_t>
  for ( int i = k1; i < k2; i++ ) {
    4be5:	4c 8b 15 84 a4 00 00 	mov    0xa484(%rip),%r10        # f070 <_ZZ5pgainlP6PointsdPliP16parsec_barrier_tE8work_mem>
  pthread_barrier_wait(barrier);
    4bec:	66 0f ef db          	pxor   %xmm3,%xmm3
    4bf0:	66 0f ef c9          	pxor   %xmm1,%xmm1
  double cost_of_opening_x = 0;
    4bf4:	66 0f ef d2          	pxor   %xmm2,%xmm2
    4bf8:	e9 ac 08 00 00       	jmpq   54a9 <_Z5pgainlP6PointsdPliP16parsec_barrier_t+0xe09>
      center_table[i] = count++;
    4bfd:	41 c7 04 b3 00 00 00 	movl   $0x0,(%r11,%rsi,4)
    4c04:	00 
    4c05:	b9 01 00 00 00       	mov    $0x1,%ecx
    4c0a:	e9 bf fb ff ff       	jmpq   47ce <_Z5pgainlP6PointsdPliP16parsec_barrier_t+0x12e>
  pthread_barrier_wait(barrier);
    4c0f:	48 8b 7c 24 10       	mov    0x10(%rsp),%rdi
    4c14:	e8 37 65 00 00       	callq  b150 <_Z19parsec_barrier_waitP16parsec_barrier_t>
  for( int i = k1; i < k2; i++ ) {
    4c19:	48 8b 74 24 08       	mov    0x8(%rsp),%rsi
    if( is_center[i] ) {
    4c1e:	48 8b 0d f3 a4 00 00 	mov    0xa4f3(%rip),%rcx        # f118 <_ZL9is_center>
      center_table[i] += (int)work_mem[pid*stride];
    4c25:	4c 8b 35 44 a4 00 00 	mov    0xa444(%rip),%r14        # f070 <_ZZ5pgainlP6PointsdPliP16parsec_barrier_tE8work_mem>
    4c2c:	4c 8b 4c 24 28       	mov    0x28(%rsp),%r9
    4c31:	48 89 f2             	mov    %rsi,%rdx
    4c34:	4c 8b 05 d5 a4 00 00 	mov    0xa4d5(%rip),%r8        # f110 <_ZL12center_table>
    4c3b:	48 f7 d2             	not    %rdx
    4c3e:	4f 8d 24 0e          	lea    (%r14,%r9,1),%r12
    4c42:	4c 01 fa             	add    %r15,%rdx
    4c45:	83 e2 07             	and    $0x7,%edx
    if( is_center[i] ) {
    4c48:	80 3c 31 00          	cmpb   $0x0,(%rcx,%rsi,1)
    4c4c:	74 0a                	je     4c58 <_Z5pgainlP6PointsdPliP16parsec_barrier_t+0x5b8>
      center_table[i] += (int)work_mem[pid*stride];
    4c4e:	f2 41 0f 2c 04 24    	cvttsd2si (%r12),%eax
    4c54:	41 01 04 b0          	add    %eax,(%r8,%rsi,4)
  for( int i = k1; i < k2; i++ ) {
    4c58:	48 8b 44 24 08       	mov    0x8(%rsp),%rax
    4c5d:	48 83 c0 01          	add    $0x1,%rax
    4c61:	4c 39 f8             	cmp    %r15,%rax
    4c64:	0f 8d 6a 01 00 00    	jge    4dd4 <_Z5pgainlP6PointsdPliP16parsec_barrier_t+0x734>
    4c6a:	48 85 d2             	test   %rdx,%rdx
    4c6d:	0f 84 ab 00 00 00    	je     4d1e <_Z5pgainlP6PointsdPliP16parsec_barrier_t+0x67e>
    4c73:	48 83 fa 01          	cmp    $0x1,%rdx
    4c77:	0f 84 84 00 00 00    	je     4d01 <_Z5pgainlP6PointsdPliP16parsec_barrier_t+0x661>
    4c7d:	48 83 fa 02          	cmp    $0x2,%rdx
    4c81:	74 6a                	je     4ced <_Z5pgainlP6PointsdPliP16parsec_barrier_t+0x64d>
    4c83:	48 83 fa 03          	cmp    $0x3,%rdx
    4c87:	74 50                	je     4cd9 <_Z5pgainlP6PointsdPliP16parsec_barrier_t+0x639>
    4c89:	48 83 fa 04          	cmp    $0x4,%rdx
    4c8d:	74 3c                	je     4ccb <_Z5pgainlP6PointsdPliP16parsec_barrier_t+0x62b>
    4c8f:	48 83 fa 05          	cmp    $0x5,%rdx
    4c93:	74 28                	je     4cbd <_Z5pgainlP6PointsdPliP16parsec_barrier_t+0x61d>
    4c95:	48 83 fa 06          	cmp    $0x6,%rdx
    4c99:	74 0e                	je     4ca9 <_Z5pgainlP6PointsdPliP16parsec_barrier_t+0x609>
    if( is_center[i] ) {
    4c9b:	80 3c 01 00          	cmpb   $0x0,(%rcx,%rax,1)
    4c9f:	0f 85 9f 14 00 00    	jne    6144 <_Z5pgainlP6PointsdPliP16parsec_barrier_t+0x1aa4>
  for( int i = k1; i < k2; i++ ) {
    4ca5:	48 83 c0 01          	add    $0x1,%rax
    if( is_center[i] ) {
    4ca9:	80 3c 01 00          	cmpb   $0x0,(%rcx,%rax,1)
    4cad:	74 0a                	je     4cb9 <_Z5pgainlP6PointsdPliP16parsec_barrier_t+0x619>
      center_table[i] += (int)work_mem[pid*stride];
    4caf:	f2 41 0f 2c 3c 24    	cvttsd2si (%r12),%edi
    4cb5:	41 01 3c 80          	add    %edi,(%r8,%rax,4)
  for( int i = k1; i < k2; i++ ) {
    4cb9:	48 83 c0 01          	add    $0x1,%rax
    if( is_center[i] ) {
    4cbd:	80 3c 01 00          	cmpb   $0x0,(%rcx,%rax,1)
    4cc1:	0f 85 b4 13 00 00    	jne    607b <_Z5pgainlP6PointsdPliP16parsec_barrier_t+0x19db>
  for( int i = k1; i < k2; i++ ) {
    4cc7:	48 83 c0 01          	add    $0x1,%rax
    if( is_center[i] ) {
    4ccb:	80 3c 01 00          	cmpb   $0x0,(%rcx,%rax,1)
    4ccf:	0f 85 67 13 00 00    	jne    603c <_Z5pgainlP6PointsdPliP16parsec_barrier_t+0x199c>
  for( int i = k1; i < k2; i++ ) {
    4cd5:	48 83 c0 01          	add    $0x1,%rax
    if( is_center[i] ) {
    4cd9:	80 3c 01 00          	cmpb   $0x0,(%rcx,%rax,1)
    4cdd:	74 0a                	je     4ce9 <_Z5pgainlP6PointsdPliP16parsec_barrier_t+0x649>
      center_table[i] += (int)work_mem[pid*stride];
    4cdf:	f2 41 0f 2c 14 24    	cvttsd2si (%r12),%edx
    4ce5:	41 01 14 80          	add    %edx,(%r8,%rax,4)
  for( int i = k1; i < k2; i++ ) {
    4ce9:	48 83 c0 01          	add    $0x1,%rax
    if( is_center[i] ) {
    4ced:	80 3c 01 00          	cmpb   $0x0,(%rcx,%rax,1)
    4cf1:	74 0a                	je     4cfd <_Z5pgainlP6PointsdPliP16parsec_barrier_t+0x65d>
      center_table[i] += (int)work_mem[pid*stride];
    4cf3:	f2 45 0f 2c 14 24    	cvttsd2si (%r12),%r10d
    4cf9:	45 01 14 80          	add    %r10d,(%r8,%rax,4)
  for( int i = k1; i < k2; i++ ) {
    4cfd:	48 83 c0 01          	add    $0x1,%rax
    if( is_center[i] ) {
    4d01:	80 3c 01 00          	cmpb   $0x0,(%rcx,%rax,1)
    4d05:	74 0a                	je     4d11 <_Z5pgainlP6PointsdPliP16parsec_barrier_t+0x671>
      center_table[i] += (int)work_mem[pid*stride];
    4d07:	f2 45 0f 2c 1c 24    	cvttsd2si (%r12),%r11d
    4d0d:	45 01 1c 80          	add    %r11d,(%r8,%rax,4)
  for( int i = k1; i < k2; i++ ) {
    4d11:	48 83 c0 01          	add    $0x1,%rax
    4d15:	4c 39 f8             	cmp    %r15,%rax
    4d18:	0f 8d b6 00 00 00    	jge    4dd4 <_Z5pgainlP6PointsdPliP16parsec_barrier_t+0x734>
    if( is_center[i] ) {
    4d1e:	80 3c 01 00          	cmpb   $0x0,(%rcx,%rax,1)
    4d22:	74 0a                	je     4d2e <_Z5pgainlP6PointsdPliP16parsec_barrier_t+0x68e>
      center_table[i] += (int)work_mem[pid*stride];
    4d24:	f2 41 0f 2c 3c 24    	cvttsd2si (%r12),%edi
    4d2a:	41 01 3c 80          	add    %edi,(%r8,%rax,4)
    if( is_center[i] ) {
    4d2e:	80 7c 01 01 00       	cmpb   $0x0,0x1(%rcx,%rax,1)
    4d33:	4c 8d 48 01          	lea    0x1(%rax),%r9
    4d37:	74 0a                	je     4d43 <_Z5pgainlP6PointsdPliP16parsec_barrier_t+0x6a3>
      center_table[i] += (int)work_mem[pid*stride];
    4d39:	f2 41 0f 2c 04 24    	cvttsd2si (%r12),%eax
    4d3f:	43 01 04 88          	add    %eax,(%r8,%r9,4)
    if( is_center[i] ) {
    4d43:	42 80 7c 09 01 00    	cmpb   $0x0,0x1(%rcx,%r9,1)
    4d49:	49 8d 71 01          	lea    0x1(%r9),%rsi
    4d4d:	74 0a                	je     4d59 <_Z5pgainlP6PointsdPliP16parsec_barrier_t+0x6b9>
      center_table[i] += (int)work_mem[pid*stride];
    4d4f:	f2 41 0f 2c 14 24    	cvttsd2si (%r12),%edx
    4d55:	41 01 14 b0          	add    %edx,(%r8,%rsi,4)
    if( is_center[i] ) {
    4d59:	42 80 7c 09 02 00    	cmpb   $0x0,0x2(%rcx,%r9,1)
    4d5f:	4d 8d 51 02          	lea    0x2(%r9),%r10
    4d63:	74 0a                	je     4d6f <_Z5pgainlP6PointsdPliP16parsec_barrier_t+0x6cf>
      center_table[i] += (int)work_mem[pid*stride];
    4d65:	f2 45 0f 2c 1c 24    	cvttsd2si (%r12),%r11d
    4d6b:	47 01 1c 90          	add    %r11d,(%r8,%r10,4)
    if( is_center[i] ) {
    4d6f:	42 80 7c 09 03 00    	cmpb   $0x0,0x3(%rcx,%r9,1)
    4d75:	49 8d 41 03          	lea    0x3(%r9),%rax
    4d79:	74 0a                	je     4d85 <_Z5pgainlP6PointsdPliP16parsec_barrier_t+0x6e5>
      center_table[i] += (int)work_mem[pid*stride];
    4d7b:	f2 41 0f 2c 3c 24    	cvttsd2si (%r12),%edi
    4d81:	41 01 3c 80          	add    %edi,(%r8,%rax,4)
    if( is_center[i] ) {
    4d85:	42 80 7c 09 04 00    	cmpb   $0x0,0x4(%rcx,%r9,1)
    4d8b:	49 8d 71 04          	lea    0x4(%r9),%rsi
    4d8f:	74 0a                	je     4d9b <_Z5pgainlP6PointsdPliP16parsec_barrier_t+0x6fb>
      center_table[i] += (int)work_mem[pid*stride];
    4d91:	f2 41 0f 2c 14 24    	cvttsd2si (%r12),%edx
    4d97:	41 01 14 b0          	add    %edx,(%r8,%rsi,4)
    if( is_center[i] ) {
    4d9b:	42 80 7c 09 05 00    	cmpb   $0x0,0x5(%rcx,%r9,1)
    4da1:	4d 8d 51 05          	lea    0x5(%r9),%r10
    4da5:	74 0a                	je     4db1 <_Z5pgainlP6PointsdPliP16parsec_barrier_t+0x711>
      center_table[i] += (int)work_mem[pid*stride];
    4da7:	f2 45 0f 2c 1c 24    	cvttsd2si (%r12),%r11d
    4dad:	47 01 1c 90          	add    %r11d,(%r8,%r10,4)
    if( is_center[i] ) {
    4db1:	42 80 7c 09 06 00    	cmpb   $0x0,0x6(%rcx,%r9,1)
    4db7:	49 8d 41 06          	lea    0x6(%r9),%rax
    4dbb:	74 0a                	je     4dc7 <_Z5pgainlP6PointsdPliP16parsec_barrier_t+0x727>
      center_table[i] += (int)work_mem[pid*stride];
    4dbd:	f2 41 0f 2c 3c 24    	cvttsd2si (%r12),%edi
    4dc3:	41 01 3c 80          	add    %edi,(%r8,%rax,4)
  for( int i = k1; i < k2; i++ ) {
    4dc7:	49 8d 41 07          	lea    0x7(%r9),%rax
    4dcb:	4c 39 f8             	cmp    %r15,%rax
    4dce:	0f 8c 4a ff ff ff    	jl     4d1e <_Z5pgainlP6PointsdPliP16parsec_barrier_t+0x67e>
    4dd4:	4c 89 ea             	mov    %r13,%rdx
  memset(switch_membership + k1, 0, (k2-k1)*sizeof(bool));
    4dd7:	48 8b 7c 24 58       	mov    0x58(%rsp),%rdi
    4ddc:	31 f6                	xor    %esi,%esi
    4dde:	48 03 3d 3b a3 00 00 	add    0xa33b(%rip),%rdi        # f120 <_ZL17switch_membership>
    4de5:	e8 36 d5 ff ff       	callq  2320 <memset@plt>
    4dea:	48 89 da             	mov    %rbx,%rdx
    4ded:	31 f6                	xor    %esi,%esi
    4def:	4c 89 e7             	mov    %r12,%rdi
    4df2:	e8 29 d5 ff ff       	callq  2320 <memset@plt>
  if( pid== 0 ) memset(work_mem+nproc*stride,0,stride*sizeof(double));
    4df7:	44 8b 6c 24 34       	mov    0x34(%rsp),%r13d
    4dfc:	45 85 ed             	test   %r13d,%r13d
    4dff:	0f 84 89 fd ff ff    	je     4b8e <_Z5pgainlP6PointsdPliP16parsec_barrier_t+0x4ee>
  pthread_barrier_wait(barrier);
    4e05:	48 8b 7c 24 10       	mov    0x10(%rsp),%rdi
    4e0a:	e8 41 63 00 00       	callq  b150 <_Z19parsec_barrier_waitP16parsec_barrier_t>
  double* gl_lower = &work_mem[nproc*stride];
    4e0f:	0f af 2d f2 a2 00 00 	imul   0xa2f2(%rip),%ebp        # f108 <_ZL5nproc>
  double* lower = &work_mem[pid*stride];
    4e16:	48 8b 0d 53 a2 00 00 	mov    0xa253(%rip),%rcx        # f070 <_ZZ5pgainlP6PointsdPliP16parsec_barrier_tE8work_mem>
    4e1d:	48 89 4c 24 40       	mov    %rcx,0x40(%rsp)
  double* gl_lower = &work_mem[nproc*stride];
    4e22:	48 63 ed             	movslq %ebp,%rbp
    4e25:	4c 8d 04 e9          	lea    (%rcx,%rbp,8),%r8
    4e29:	4c 89 44 24 60       	mov    %r8,0x60(%rsp)
    float x_cost = dist(points->p[i], points->p[x], points->dim) 
    4e2e:	48 8b 54 24 50       	mov    0x50(%rsp),%rdx
      switch_membership[i] = 1;
    4e33:	4c 8b 2d e6 a2 00 00 	mov    0xa2e6(%rip),%r13        # f120 <_ZL17switch_membership>
  double cost_of_opening_x = 0;
    4e3a:	66 0f ef db          	pxor   %xmm3,%xmm3
    4e3e:	48 89 9c 24 88 00 00 	mov    %rbx,0x88(%rsp)
    4e45:	00 
    4e46:	48 8b 4c 24 08       	mov    0x8(%rsp),%rcx
    4e4b:	4c 8b 5c 24 48       	mov    0x48(%rsp),%r11
    4e50:	4c 89 7c 24 78       	mov    %r15,0x78(%rsp)
    4e55:	66 0f ef d2          	pxor   %xmm2,%xmm2
    float x_cost = dist(points->p[i], points->p[x], points->dim) 
    4e59:	44 8b 4a 08          	mov    0x8(%rdx),%r9d
    4e5d:	4f 8d 64 3d 00       	lea    0x0(%r13,%r15,1),%r12
      lower[center_table[assign]] += current_cost - x_cost;
    4e62:	48 8b 3d a7 a2 00 00 	mov    0xa2a7(%rip),%rdi        # f110 <_ZL12center_table>
    4e69:	4d 8d 44 0d 00       	lea    0x0(%r13,%rcx,1),%r8
    float x_cost = dist(points->p[i], points->p[x], points->dim) 
    4e6e:	4c 8b 52 10          	mov    0x10(%rdx),%r10
    4e72:	48 89 cd             	mov    %rcx,%rbp
    4e75:	49 c1 e3 05          	shl    $0x5,%r11
    4e79:	45 89 cd             	mov    %r9d,%r13d
      lower[center_table[assign]] += current_cost - x_cost;
    4e7c:	48 89 7c 24 38       	mov    %rdi,0x38(%rsp)
    4e81:	48 c1 e1 05          	shl    $0x5,%rcx
    4e85:	41 8d 51 ff          	lea    -0x1(%r9),%edx
    4e89:	41 c1 ed 02          	shr    $0x2,%r13d
    4e8d:	45 89 ce             	mov    %r9d,%r14d
    4e90:	4f 8b 5c 1a 08       	mov    0x8(%r10,%r11,1),%r11
    4e95:	41 89 d7             	mov    %edx,%r15d
    4e98:	41 8d 45 fb          	lea    -0x5(%r13),%eax
    4e9c:	48 89 ac 24 80 00 00 	mov    %rbp,0x80(%rsp)
    4ea3:	00 
    4ea4:	49 8d 74 0a 58       	lea    0x58(%r10,%rcx,1),%rsi
    4ea9:	41 83 e6 fc          	and    $0xfffffffc,%r14d
    4ead:	83 e0 fc             	and    $0xfffffffc,%eax
    4eb0:	83 c0 08             	add    $0x8,%eax
    4eb3:	89 44 24 20          	mov    %eax,0x20(%rsp)
    4eb7:	66 0f 1f 84 00 00 00 	nopw   0x0(%rax,%rax,1)
    4ebe:	00 00 
    float x_cost = dist(points->p[i], points->p[x], points->dim) 
    4ec0:	0f 18 4e f0          	prefetcht0 -0x10(%rsi)
    4ec4:	48 8b 7e b0          	mov    -0x50(%rsi),%rdi
  for (i=0;i<dim;i++)
    4ec8:	45 85 c9             	test   %r9d,%r9d
    4ecb:	0f 8e df 08 00 00    	jle    57b0 <_Z5pgainlP6PointsdPliP16parsec_barrier_t+0x1110>
    4ed1:	41 83 ff 02          	cmp    $0x2,%r15d
    4ed5:	0f 86 de 08 00 00    	jbe    57b9 <_Z5pgainlP6PointsdPliP16parsec_barrier_t+0x1119>
    4edb:	4c 89 d8             	mov    %r11,%rax
    4ede:	48 89 fa             	mov    %rdi,%rdx
    4ee1:	41 83 fd 04          	cmp    $0x4,%r13d
    4ee5:	0f 86 d9 08 00 00    	jbe    57c4 <_Z5pgainlP6PointsdPliP16parsec_barrier_t+0x1124>
    4eeb:	bb 04 00 00 00       	mov    $0x4,%ebx
  float result=0.0;
    4ef0:	66 0f ef c0          	pxor   %xmm0,%xmm0
    4ef4:	eb 0d                	jmp    4f03 <_Z5pgainlP6PointsdPliP16parsec_barrier_t+0x863>
    4ef6:	66 2e 0f 1f 84 00 00 	nopw   %cs:0x0(%rax,%rax,1)
    4efd:	00 00 00 
    result += (p1.coord[i] - p2.coord[i])*(p1.coord[i] - p2.coord[i]);
    4f00:	44 89 d3             	mov    %r10d,%ebx
    4f03:	0f 10 08             	movups (%rax),%xmm1
    4f06:	44 0f 10 3a          	movups (%rdx),%xmm15
    4f0a:	44 8d 53 04          	lea    0x4(%rbx),%r10d
    4f0e:	0f 18 8a 00 01 00 00 	prefetcht0 0x100(%rdx)
    4f15:	0f 10 78 10          	movups 0x10(%rax),%xmm7
    4f19:	44 0f 10 42 10       	movups 0x10(%rdx),%xmm8
    4f1e:	48 83 c2 40          	add    $0x40,%rdx
    4f22:	0f 18 88 00 01 00 00 	prefetcht0 0x100(%rax)
    4f29:	44 0f 5c f9          	subps  %xmm1,%xmm15
    4f2d:	44 0f 10 62 e0       	movups -0x20(%rdx),%xmm12
    4f32:	44 0f 10 68 20       	movups 0x20(%rax),%xmm13
    4f37:	48 83 c0 40          	add    $0x40,%rax
    4f3b:	44 0f 5c c7          	subps  %xmm7,%xmm8
    4f3f:	45 0f 5c e5          	subps  %xmm13,%xmm12
    4f43:	45 0f 59 ff          	mulps  %xmm15,%xmm15
    4f47:	45 0f 59 c0          	mulps  %xmm8,%xmm8
    4f4b:	45 0f 59 e4          	mulps  %xmm12,%xmm12
    4f4f:	f3 41 0f 58 c7       	addss  %xmm15,%xmm0
    4f54:	41 0f 28 f7          	movaps %xmm15,%xmm6
    4f58:	41 0f c6 f7 55       	shufps $0x55,%xmm15,%xmm6
    4f5d:	45 0f 28 d0          	movaps %xmm8,%xmm10
    4f61:	41 0f 28 c8          	movaps %xmm8,%xmm1
    4f65:	45 0f c6 d0 55       	shufps $0x55,%xmm8,%xmm10
    4f6a:	41 0f 15 c8          	unpckhps %xmm8,%xmm1
    4f6e:	45 0f 28 f4          	movaps %xmm12,%xmm14
    4f72:	f3 0f 58 f0          	addss  %xmm0,%xmm6
    4f76:	41 0f 28 c7          	movaps %xmm15,%xmm0
    4f7a:	44 0f 28 d9          	movaps %xmm1,%xmm11
    4f7e:	41 0f 15 c7          	unpckhps %xmm15,%xmm0
    4f82:	45 0f c6 ff ff       	shufps $0xff,%xmm15,%xmm15
    4f87:	41 0f 28 cc          	movaps %xmm12,%xmm1
    4f8b:	0f 28 e8             	movaps %xmm0,%xmm5
    4f8e:	0f 10 42 f0          	movups -0x10(%rdx),%xmm0
    4f92:	41 0f c6 cc 55       	shufps $0x55,%xmm12,%xmm1
    4f97:	f3 0f 58 ee          	addss  %xmm6,%xmm5
    4f9b:	0f 10 70 f0          	movups -0x10(%rax),%xmm6
    4f9f:	0f 5c c6             	subps  %xmm6,%xmm0
    4fa2:	f3 44 0f 58 fd       	addss  %xmm5,%xmm15
    4fa7:	0f 59 c0             	mulps  %xmm0,%xmm0
    4faa:	f3 45 0f 58 f8       	addss  %xmm8,%xmm15
    4faf:	45 0f c6 c0 ff       	shufps $0xff,%xmm8,%xmm8
    4fb4:	f3 45 0f 58 d7       	addss  %xmm15,%xmm10
    4fb9:	f3 45 0f 58 da       	addss  %xmm10,%xmm11
    4fbe:	f3 45 0f 58 d8       	addss  %xmm8,%xmm11
    4fc3:	44 0f 28 c0          	movaps %xmm0,%xmm8
    4fc7:	f3 45 0f 58 f3       	addss  %xmm11,%xmm14
    4fcc:	f3 44 0f 58 f1       	addss  %xmm1,%xmm14
    4fd1:	41 0f 28 cc          	movaps %xmm12,%xmm1
    4fd5:	41 0f 15 cc          	unpckhps %xmm12,%xmm1
    4fd9:	45 0f c6 e4 ff       	shufps $0xff,%xmm12,%xmm12
    4fde:	0f 28 e1             	movaps %xmm1,%xmm4
    4fe1:	0f 28 c8             	movaps %xmm0,%xmm1
    4fe4:	f3 41 0f 58 e6       	addss  %xmm14,%xmm4
    4fe9:	0f c6 c8 55          	shufps $0x55,%xmm0,%xmm1
    4fed:	f3 41 0f 58 e4       	addss  %xmm12,%xmm4
    4ff2:	f3 44 0f 58 c4       	addss  %xmm4,%xmm8
    4ff7:	f3 44 0f 58 c1       	addss  %xmm1,%xmm8
    4ffc:	0f 28 c8             	movaps %xmm0,%xmm1
    4fff:	0f 15 c8             	unpckhps %xmm0,%xmm1
    5002:	0f c6 c0 ff          	shufps $0xff,%xmm0,%xmm0
    5006:	0f 28 f9             	movaps %xmm1,%xmm7
    5009:	f3 41 0f 58 f8       	addss  %xmm8,%xmm7
    500e:	f3 0f 58 c7          	addss  %xmm7,%xmm0
  for (i=0;i<dim;i++)
    5012:	44 3b 54 24 20       	cmp    0x20(%rsp),%r10d
    5017:	0f 85 e3 fe ff ff    	jne    4f00 <_Z5pgainlP6PointsdPliP16parsec_barrier_t+0x860>
    result += (p1.coord[i] - p2.coord[i])*(p1.coord[i] - p2.coord[i]);
    501d:	44 0f 10 0a          	movups (%rdx),%xmm9
    5021:	44 0f 10 10          	movups (%rax),%xmm10
    5025:	89 dd                	mov    %ebx,%ebp
    5027:	44 8d 53 01          	lea    0x1(%rbx),%r10d
    502b:	f7 d5                	not    %ebp
    502d:	b9 10 00 00 00       	mov    $0x10,%ecx
    5032:	45 0f 5c ca          	subps  %xmm10,%xmm9
    5036:	44 01 ed             	add    %r13d,%ebp
    5039:	83 e5 03             	and    $0x3,%ebp
    503c:	45 0f 59 c9          	mulps  %xmm9,%xmm9
    5040:	45 0f 28 d9          	movaps %xmm9,%xmm11
    5044:	f3 44 0f 58 d8       	addss  %xmm0,%xmm11
    5049:	41 0f 28 c1          	movaps %xmm9,%xmm0
    504d:	41 0f c6 c1 55       	shufps $0x55,%xmm9,%xmm0
    5052:	f3 44 0f 58 d8       	addss  %xmm0,%xmm11
    5057:	41 0f 28 c1          	movaps %xmm9,%xmm0
    505b:	41 0f 15 c1          	unpckhps %xmm9,%xmm0
    505f:	45 0f c6 c9 ff       	shufps $0xff,%xmm9,%xmm9
    5064:	f3 41 0f 58 c3       	addss  %xmm11,%xmm0
    5069:	f3 41 0f 58 c1       	addss  %xmm9,%xmm0
  for (i=0;i<dim;i++)
    506e:	45 39 d5             	cmp    %r10d,%r13d
    5071:	0f 86 0e 02 00 00    	jbe    5285 <_Z5pgainlP6PointsdPliP16parsec_barrier_t+0xbe5>
    5077:	85 ed                	test   %ebp,%ebp
    5079:	0f 84 f1 00 00 00    	je     5170 <_Z5pgainlP6PointsdPliP16parsec_barrier_t+0xad0>
    507f:	83 fd 01             	cmp    $0x1,%ebp
    5082:	0f 84 92 00 00 00    	je     511a <_Z5pgainlP6PointsdPliP16parsec_barrier_t+0xa7a>
    5088:	83 fd 02             	cmp    $0x2,%ebp
    508b:	74 46                	je     50d3 <_Z5pgainlP6PointsdPliP16parsec_barrier_t+0xa33>
    result += (p1.coord[i] - p2.coord[i])*(p1.coord[i] - p2.coord[i]);
    508d:	44 0f 10 6a 10       	movups 0x10(%rdx),%xmm13
    5092:	44 0f 10 70 10       	movups 0x10(%rax),%xmm14
    5097:	b9 20 00 00 00       	mov    $0x20,%ecx
    509c:	44 8d 53 02          	lea    0x2(%rbx),%r10d
    50a0:	45 0f 5c ee          	subps  %xmm14,%xmm13
    50a4:	45 0f 59 ed          	mulps  %xmm13,%xmm13
    50a8:	f3 41 0f 58 c5       	addss  %xmm13,%xmm0
    50ad:	41 0f 28 e5          	movaps %xmm13,%xmm4
    50b1:	41 0f 28 f5          	movaps %xmm13,%xmm6
    50b5:	41 0f c6 e5 55       	shufps $0x55,%xmm13,%xmm4
    50ba:	41 0f 15 f5          	unpckhps %xmm13,%xmm6
    50be:	45 0f c6 ed ff       	shufps $0xff,%xmm13,%xmm13
    50c3:	f3 0f 58 e0          	addss  %xmm0,%xmm4
    50c7:	41 0f 28 c5          	movaps %xmm13,%xmm0
    50cb:	f3 0f 58 e6          	addss  %xmm6,%xmm4
    50cf:	f3 0f 58 c4          	addss  %xmm4,%xmm0
    50d3:	0f 10 2c 08          	movups (%rax,%rcx,1),%xmm5
    50d7:	44 0f 10 04 0a       	movups (%rdx,%rcx,1),%xmm8
    50dc:	41 83 c2 01          	add    $0x1,%r10d
    50e0:	48 83 c1 10          	add    $0x10,%rcx
    50e4:	44 0f 5c c5          	subps  %xmm5,%xmm8
    50e8:	45 0f 59 c0          	mulps  %xmm8,%xmm8
    50ec:	f3 41 0f 58 c0       	addss  %xmm8,%xmm0
    50f1:	41 0f 28 e8          	movaps %xmm8,%xmm5
    50f5:	41 0f c6 e8 55       	shufps $0x55,%xmm8,%xmm5
    50fa:	0f 28 fd             	movaps %xmm5,%xmm7
    50fd:	f3 0f 58 f8          	addss  %xmm0,%xmm7
    5101:	41 0f 28 c0          	movaps %xmm8,%xmm0
    5105:	41 0f 15 c0          	unpckhps %xmm8,%xmm0
    5109:	45 0f c6 c0 ff       	shufps $0xff,%xmm8,%xmm8
    510e:	f3 0f 58 f8          	addss  %xmm0,%xmm7
    5112:	41 0f 28 c0          	movaps %xmm8,%xmm0
    5116:	f3 0f 58 c7          	addss  %xmm7,%xmm0
    511a:	44 0f 10 14 0a       	movups (%rdx,%rcx,1),%xmm10
    511f:	44 0f 10 1c 08       	movups (%rax,%rcx,1),%xmm11
    5124:	41 83 c2 01          	add    $0x1,%r10d
    5128:	48 83 c1 10          	add    $0x10,%rcx
    512c:	45 0f 5c d3          	subps  %xmm11,%xmm10
    5130:	45 0f 59 d2          	mulps  %xmm10,%xmm10
    5134:	f3 41 0f 58 c2       	addss  %xmm10,%xmm0
    5139:	41 0f 28 ea          	movaps %xmm10,%xmm5
    513d:	41 0f c6 ea 55       	shufps $0x55,%xmm10,%xmm5
    5142:	44 0f 28 ed          	movaps %xmm5,%xmm13
    5146:	f3 44 0f 58 e8       	addss  %xmm0,%xmm13
    514b:	41 0f 28 c2          	movaps %xmm10,%xmm0
    514f:	41 0f 15 c2          	unpckhps %xmm10,%xmm0
    5153:	45 0f c6 d2 ff       	shufps $0xff,%xmm10,%xmm10
    5158:	f3 44 0f 58 e8       	addss  %xmm0,%xmm13
    515d:	41 0f 28 c2          	movaps %xmm10,%xmm0
    5161:	f3 41 0f 58 c5       	addss  %xmm13,%xmm0
  for (i=0;i<dim;i++)
    5166:	45 39 d5             	cmp    %r10d,%r13d
    5169:	0f 86 16 01 00 00    	jbe    5285 <_Z5pgainlP6PointsdPliP16parsec_barrier_t+0xbe5>
    516f:	90                   	nop
    result += (p1.coord[i] - p2.coord[i])*(p1.coord[i] - p2.coord[i]);
    5170:	0f 10 24 08          	movups (%rax,%rcx,1),%xmm4
    5174:	44 0f 10 3c 0a       	movups (%rdx,%rcx,1),%xmm15
    5179:	41 83 c2 04          	add    $0x4,%r10d
    517d:	0f 10 7c 08 10       	movups 0x10(%rax,%rcx,1),%xmm7
    5182:	0f 10 4c 0a 10       	movups 0x10(%rdx,%rcx,1),%xmm1
    5187:	44 0f 5c fc          	subps  %xmm4,%xmm15
    518b:	44 0f 10 6c 0a 20    	movups 0x20(%rdx,%rcx,1),%xmm13
    5191:	0f 10 6c 08 20       	movups 0x20(%rax,%rcx,1),%xmm5
    5196:	0f 5c cf             	subps  %xmm7,%xmm1
    5199:	44 0f 5c ed          	subps  %xmm5,%xmm13
    519d:	45 0f 59 ff          	mulps  %xmm15,%xmm15
    51a1:	0f 59 c9             	mulps  %xmm1,%xmm1
    51a4:	45 0f 59 ed          	mulps  %xmm13,%xmm13
    51a8:	f3 41 0f 58 c7       	addss  %xmm15,%xmm0
    51ad:	41 0f 28 f7          	movaps %xmm15,%xmm6
    51b1:	41 0f c6 f7 55       	shufps $0x55,%xmm15,%xmm6
    51b6:	44 0f 28 c6          	movaps %xmm6,%xmm8
    51ba:	44 0f 28 d1          	movaps %xmm1,%xmm10
    51be:	41 0f 28 f5          	movaps %xmm13,%xmm6
    51c2:	f3 44 0f 58 c0       	addss  %xmm0,%xmm8
    51c7:	41 0f 28 c7          	movaps %xmm15,%xmm0
    51cb:	41 0f c6 f5 55       	shufps $0x55,%xmm13,%xmm6
    51d0:	41 0f 15 c7          	unpckhps %xmm15,%xmm0
    51d4:	45 0f c6 ff ff       	shufps $0xff,%xmm15,%xmm15
    51d9:	44 0f 28 c8          	movaps %xmm0,%xmm9
    51dd:	0f 28 c1             	movaps %xmm1,%xmm0
    51e0:	f3 45 0f 58 c8       	addss  %xmm8,%xmm9
    51e5:	0f c6 c1 55          	shufps $0x55,%xmm1,%xmm0
    51e9:	44 0f 10 44 0a 30    	movups 0x30(%rdx,%rcx,1),%xmm8
    51ef:	f3 45 0f 58 cf       	addss  %xmm15,%xmm9
    51f4:	44 0f 28 fe          	movaps %xmm6,%xmm15
    51f8:	f3 45 0f 58 d1       	addss  %xmm9,%xmm10
    51fd:	44 0f 10 4c 08 30    	movups 0x30(%rax,%rcx,1),%xmm9
    5203:	48 83 c1 40          	add    $0x40,%rcx
    5207:	45 0f 5c c1          	subps  %xmm9,%xmm8
    520b:	f3 44 0f 58 d0       	addss  %xmm0,%xmm10
    5210:	0f 28 c1             	movaps %xmm1,%xmm0
    5213:	0f 15 c1             	unpckhps %xmm1,%xmm0
    5216:	0f c6 c9 ff          	shufps $0xff,%xmm1,%xmm1
    521a:	45 0f 59 c0          	mulps  %xmm8,%xmm8
    521e:	44 0f 28 e0          	movaps %xmm0,%xmm12
    5222:	f3 45 0f 58 e2       	addss  %xmm10,%xmm12
    5227:	f3 41 0f 58 cc       	addss  %xmm12,%xmm1
    522c:	41 0f 28 f8          	movaps %xmm8,%xmm7
    5230:	41 0f 28 c0          	movaps %xmm8,%xmm0
    5234:	41 0f c6 c0 55       	shufps $0x55,%xmm8,%xmm0
    5239:	f3 41 0f 58 cd       	addss  %xmm13,%xmm1
    523e:	f3 44 0f 58 f9       	addss  %xmm1,%xmm15
    5243:	41 0f 28 cd          	movaps %xmm13,%xmm1
    5247:	41 0f 15 cd          	unpckhps %xmm13,%xmm1
    524b:	45 0f c6 ed ff       	shufps $0xff,%xmm13,%xmm13
    5250:	0f 28 e1             	movaps %xmm1,%xmm4
    5253:	f3 41 0f 58 e7       	addss  %xmm15,%xmm4
    5258:	f3 44 0f 58 ec       	addss  %xmm4,%xmm13
    525d:	f3 41 0f 58 fd       	addss  %xmm13,%xmm7
    5262:	f3 0f 58 f8          	addss  %xmm0,%xmm7
    5266:	41 0f 28 c0          	movaps %xmm8,%xmm0
    526a:	41 0f 15 c0          	unpckhps %xmm8,%xmm0
    526e:	45 0f c6 c0 ff       	shufps $0xff,%xmm8,%xmm8
    5273:	f3 0f 58 c7          	addss  %xmm7,%xmm0
    5277:	f3 41 0f 58 c0       	addss  %xmm8,%xmm0
  for (i=0;i<dim;i++)
    527c:	45 39 d5             	cmp    %r10d,%r13d
    527f:	0f 87 eb fe ff ff    	ja     5170 <_Z5pgainlP6PointsdPliP16parsec_barrier_t+0xad0>
    5285:	44 89 f0             	mov    %r14d,%eax
    5288:	45 39 ce             	cmp    %r9d,%r14d
    528b:	74 5a                	je     52e7 <_Z5pgainlP6PointsdPliP16parsec_barrier_t+0xc47>
    result += (p1.coord[i] - p2.coord[i])*(p1.coord[i] - p2.coord[i]);
    528d:	48 63 d0             	movslq %eax,%rdx
  for (i=0;i<dim;i++)
    5290:	8d 58 01             	lea    0x1(%rax),%ebx
    result += (p1.coord[i] - p2.coord[i])*(p1.coord[i] - p2.coord[i]);
    5293:	f3 44 0f 10 1c 97    	movss  (%rdi,%rdx,4),%xmm11
    5299:	f3 45 0f 5c 1c 93    	subss  (%r11,%rdx,4),%xmm11
    529f:	f3 45 0f 59 db       	mulss  %xmm11,%xmm11
    52a4:	f3 41 0f 58 c3       	addss  %xmm11,%xmm0
  for (i=0;i<dim;i++)
    52a9:	41 39 d9             	cmp    %ebx,%r9d
    52ac:	7e 39                	jle    52e7 <_Z5pgainlP6PointsdPliP16parsec_barrier_t+0xc47>
    result += (p1.coord[i] - p2.coord[i])*(p1.coord[i] - p2.coord[i]);
    52ae:	48 63 eb             	movslq %ebx,%rbp
  for (i=0;i<dim;i++)
    52b1:	83 c0 02             	add    $0x2,%eax
    result += (p1.coord[i] - p2.coord[i])*(p1.coord[i] - p2.coord[i]);
    52b4:	f3 44 0f 10 24 af    	movss  (%rdi,%rbp,4),%xmm12
    52ba:	f3 45 0f 5c 24 ab    	subss  (%r11,%rbp,4),%xmm12
    52c0:	f3 45 0f 59 e4       	mulss  %xmm12,%xmm12
    52c5:	f3 41 0f 58 c4       	addss  %xmm12,%xmm0
  for (i=0;i<dim;i++)
    52ca:	41 39 c1             	cmp    %eax,%r9d
    52cd:	7e 18                	jle    52e7 <_Z5pgainlP6PointsdPliP16parsec_barrier_t+0xc47>
    result += (p1.coord[i] - p2.coord[i])*(p1.coord[i] - p2.coord[i]);
    52cf:	48 98                	cltq   
    52d1:	f3 44 0f 10 2c 87    	movss  (%rdi,%rax,4),%xmm13
    52d7:	f3 45 0f 5c 2c 83    	subss  (%r11,%rax,4),%xmm13
    52dd:	f3 45 0f 59 ed       	mulss  %xmm13,%xmm13
    52e2:	f3 41 0f 58 c5       	addss  %xmm13,%xmm0
      * points->p[i].weight;
    52e7:	f3 0f 59 46 a8       	mulss  -0x58(%rsi),%xmm0
    float current_cost = points->p[i].cost;
    52ec:	f3 0f 10 6e c0       	movss  -0x40(%rsi),%xmm5
    if ( x_cost < current_cost ) {
    52f1:	0f 18 0e             	prefetcht0 (%rsi)
    52f4:	0f 2f e8             	comiss %xmm0,%xmm5
    52f7:	0f 86 73 04 00 00    	jbe    5770 <_Z5pgainlP6PointsdPliP16parsec_barrier_t+0x10d0>
      cost_of_opening_x += x_cost - current_cost;
    52fd:	f3 0f 5c c5          	subss  %xmm5,%xmm0
    5301:	66 0f ef f6          	pxor   %xmm6,%xmm6
      switch_membership[i] = 1;
    5305:	41 c6 00 01          	movb   $0x1,(%r8)
      cost_of_opening_x += x_cost - current_cost;
    5309:	f3 0f 5a f0          	cvtss2sd %xmm0,%xmm6
    530d:	f2 0f 58 d6          	addsd  %xmm6,%xmm2
  for ( i = k1; i < k2; i++ ) {
    5311:	49 83 c0 01          	add    $0x1,%r8
    5315:	48 83 c6 20          	add    $0x20,%rsi
    5319:	4d 39 e0             	cmp    %r12,%r8
    531c:	0f 85 9e fb ff ff    	jne    4ec0 <_Z5pgainlP6PointsdPliP16parsec_barrier_t+0x820>
  pthread_barrier_wait(barrier);
    5322:	48 8b 7c 24 10       	mov    0x10(%rsp),%rdi
    5327:	f2 0f 11 5c 24 28    	movsd  %xmm3,0x28(%rsp)
    532d:	4c 8b 7c 24 78       	mov    0x78(%rsp),%r15
    5332:	f2 0f 11 54 24 20    	movsd  %xmm2,0x20(%rsp)
    5338:	4c 8b ac 24 80 00 00 	mov    0x80(%rsp),%r13
    533f:	00 
    5340:	48 8b 9c 24 88 00 00 	mov    0x88(%rsp),%rbx
    5347:	00 
    5348:	e8 03 5e 00 00       	callq  b150 <_Z19parsec_barrier_waitP16parsec_barrier_t>
    if( is_center[i] ) {
    534d:	4c 8b 35 c4 9d 00 00 	mov    0x9dc4(%rip),%r14        # f118 <_ZL9is_center>
  int number_of_centers_to_close = 0;
    5354:	45 31 c9             	xor    %r9d,%r9d
      for( int p = 0; p < nproc; p++ ) {
    5357:	8b 2d ab 9d 00 00    	mov    0x9dab(%rip),%ebp        # f108 <_ZL5nproc>
	low += work_mem[center_table[i]+p*stride];
    535d:	4c 8b 15 0c 9d 00 00 	mov    0x9d0c(%rip),%r10        # f070 <_ZZ5pgainlP6PointsdPliP16parsec_barrier_tE8work_mem>
    5364:	4c 8b 1d a5 9d 00 00 	mov    0x9da5(%rip),%r11        # f110 <_ZL12center_table>
    536b:	4c 8b 44 24 60       	mov    0x60(%rsp),%r8
    5370:	f2 0f 10 54 24 20    	movsd  0x20(%rsp),%xmm2
    5376:	f2 0f 10 5c 24 28    	movsd  0x28(%rsp),%xmm3
    537c:	eb 0f                	jmp    538d <_Z5pgainlP6PointsdPliP16parsec_barrier_t+0xced>
    537e:	66 90                	xchg   %ax,%ax
  for ( int i = k1; i < k2; i++ ) {
    5380:	49 83 c5 01          	add    $0x1,%r13
    5384:	4d 39 fd             	cmp    %r15,%r13
    5387:	0f 84 13 01 00 00    	je     54a0 <_Z5pgainlP6PointsdPliP16parsec_barrier_t+0xe00>
    if( is_center[i] ) {
    538d:	43 80 3c 2e 00       	cmpb   $0x0,(%r14,%r13,1)
    5392:	74 ec                	je     5380 <_Z5pgainlP6PointsdPliP16parsec_barrier_t+0xce0>
      for( int p = 0; p < nproc; p++ ) {
    5394:	4b 63 34 ab          	movslq (%r11,%r13,4),%rsi
    5398:	85 ed                	test   %ebp,%ebp
    539a:	0f 8e 90 0c 00 00    	jle    6030 <_Z5pgainlP6PointsdPliP16parsec_barrier_t+0x1990>
    53a0:	41 89 ec             	mov    %ebp,%r12d
    53a3:	49 8d 04 f2          	lea    (%r10,%rsi,8),%rax
      double low = z;
    53a7:	f2 44 0f 10 7c 24 18 	movsd  0x18(%rsp),%xmm15
      for( int p = 0; p < nproc; p++ ) {
    53ae:	31 c9                	xor    %ecx,%ecx
    53b0:	41 83 e4 07          	and    $0x7,%r12d
    53b4:	74 77                	je     542d <_Z5pgainlP6PointsdPliP16parsec_barrier_t+0xd8d>
    53b6:	41 83 fc 01          	cmp    $0x1,%r12d
    53ba:	74 62                	je     541e <_Z5pgainlP6PointsdPliP16parsec_barrier_t+0xd7e>
    53bc:	41 83 fc 02          	cmp    $0x2,%r12d
    53c0:	74 51                	je     5413 <_Z5pgainlP6PointsdPliP16parsec_barrier_t+0xd73>
    53c2:	41 83 fc 03          	cmp    $0x3,%r12d
    53c6:	74 40                	je     5408 <_Z5pgainlP6PointsdPliP16parsec_barrier_t+0xd68>
    53c8:	41 83 fc 04          	cmp    $0x4,%r12d
    53cc:	74 2f                	je     53fd <_Z5pgainlP6PointsdPliP16parsec_barrier_t+0xd5d>
    53ce:	41 83 fc 05          	cmp    $0x5,%r12d
    53d2:	74 1e                	je     53f2 <_Z5pgainlP6PointsdPliP16parsec_barrier_t+0xd52>
    53d4:	41 83 fc 06          	cmp    $0x6,%r12d
    53d8:	74 0d                	je     53e7 <_Z5pgainlP6PointsdPliP16parsec_barrier_t+0xd47>
	low += work_mem[center_table[i]+p*stride];
    53da:	f2 44 0f 58 38       	addsd  (%rax),%xmm15
      for( int p = 0; p < nproc; p++ ) {
    53df:	b9 01 00 00 00       	mov    $0x1,%ecx
    53e4:	48 01 d8             	add    %rbx,%rax
	low += work_mem[center_table[i]+p*stride];
    53e7:	f2 44 0f 58 38       	addsd  (%rax),%xmm15
      for( int p = 0; p < nproc; p++ ) {
    53ec:	83 c1 01             	add    $0x1,%ecx
    53ef:	48 01 d8             	add    %rbx,%rax
	low += work_mem[center_table[i]+p*stride];
    53f2:	f2 44 0f 58 38       	addsd  (%rax),%xmm15
      for( int p = 0; p < nproc; p++ ) {
    53f7:	83 c1 01             	add    $0x1,%ecx
    53fa:	48 01 d8             	add    %rbx,%rax
	low += work_mem[center_table[i]+p*stride];
    53fd:	f2 44 0f 58 38       	addsd  (%rax),%xmm15
      for( int p = 0; p < nproc; p++ ) {
    5402:	83 c1 01             	add    $0x1,%ecx
    5405:	48 01 d8             	add    %rbx,%rax
	low += work_mem[center_table[i]+p*stride];
    5408:	f2 44 0f 58 38       	addsd  (%rax),%xmm15
      for( int p = 0; p < nproc; p++ ) {
    540d:	83 c1 01             	add    $0x1,%ecx
    5410:	48 01 d8             	add    %rbx,%rax
	low += work_mem[center_table[i]+p*stride];
    5413:	f2 44 0f 58 38       	addsd  (%rax),%xmm15
      for( int p = 0; p < nproc; p++ ) {
    5418:	83 c1 01             	add    $0x1,%ecx
    541b:	48 01 d8             	add    %rbx,%rax
    541e:	83 c1 01             	add    $0x1,%ecx
	low += work_mem[center_table[i]+p*stride];
    5421:	f2 44 0f 58 38       	addsd  (%rax),%xmm15
      for( int p = 0; p < nproc; p++ ) {
    5426:	48 01 d8             	add    %rbx,%rax
    5429:	39 e9                	cmp    %ebp,%ecx
    542b:	74 47                	je     5474 <_Z5pgainlP6PointsdPliP16parsec_barrier_t+0xdd4>
	low += work_mem[center_table[i]+p*stride];
    542d:	f2 44 0f 58 38       	addsd  (%rax),%xmm15
      for( int p = 0; p < nproc; p++ ) {
    5432:	48 01 d8             	add    %rbx,%rax
    5435:	83 c1 08             	add    $0x8,%ecx
	low += work_mem[center_table[i]+p*stride];
    5438:	f2 44 0f 58 38       	addsd  (%rax),%xmm15
      for( int p = 0; p < nproc; p++ ) {
    543d:	48 01 d8             	add    %rbx,%rax
	low += work_mem[center_table[i]+p*stride];
    5440:	f2 44 0f 58 38       	addsd  (%rax),%xmm15
      for( int p = 0; p < nproc; p++ ) {
    5445:	48 01 d8             	add    %rbx,%rax
	low += work_mem[center_table[i]+p*stride];
    5448:	f2 44 0f 58 38       	addsd  (%rax),%xmm15
      for( int p = 0; p < nproc; p++ ) {
    544d:	48 01 d8             	add    %rbx,%rax
	low += work_mem[center_table[i]+p*stride];
    5450:	f2 44 0f 58 38       	addsd  (%rax),%xmm15
      for( int p = 0; p < nproc; p++ ) {
    5455:	48 01 d8             	add    %rbx,%rax
	low += work_mem[center_table[i]+p*stride];
    5458:	f2 44 0f 58 38       	addsd  (%rax),%xmm15
      for( int p = 0; p < nproc; p++ ) {
    545d:	48 01 d8             	add    %rbx,%rax
	low += work_mem[center_table[i]+p*stride];
    5460:	f2 44 0f 58 38       	addsd  (%rax),%xmm15
      for( int p = 0; p < nproc; p++ ) {
    5465:	48 01 d8             	add    %rbx,%rax
	low += work_mem[center_table[i]+p*stride];
    5468:	f2 44 0f 58 38       	addsd  (%rax),%xmm15
      for( int p = 0; p < nproc; p++ ) {
    546d:	48 01 d8             	add    %rbx,%rax
    5470:	39 e9                	cmp    %ebp,%ecx
    5472:	75 b9                	jne    542d <_Z5pgainlP6PointsdPliP16parsec_barrier_t+0xd8d>
      if ( low > 0 ) {
    5474:	66 44 0f 2f fb       	comisd %xmm3,%xmm15
      gl_lower[center_table[i]] = low;
    5479:	f2 45 0f 11 3c f0    	movsd  %xmm15,(%r8,%rsi,8)
      if ( low > 0 ) {
    547f:	0f 86 fb fe ff ff    	jbe    5380 <_Z5pgainlP6PointsdPliP16parsec_barrier_t+0xce0>
	++number_of_centers_to_close;  
    5485:	49 83 c5 01          	add    $0x1,%r13
    5489:	41 83 c1 01          	add    $0x1,%r9d
	cost_of_opening_x -= low;
    548d:	f2 41 0f 5c d7       	subsd  %xmm15,%xmm2
  for ( int i = k1; i < k2; i++ ) {
    5492:	4d 39 fd             	cmp    %r15,%r13
    5495:	0f 85 f2 fe ff ff    	jne    538d <_Z5pgainlP6PointsdPliP16parsec_barrier_t+0xced>
    549b:	0f 1f 44 00 00       	nopl   0x0(%rax,%rax,1)
    54a0:	66 0f ef c9          	pxor   %xmm1,%xmm1
    54a4:	f2 41 0f 2a c9       	cvtsi2sd %r9d,%xmm1
  work_mem[pid*stride + K] = number_of_centers_to_close;
    54a9:	8b 44 24 70          	mov    0x70(%rsp),%eax
    54ad:	03 44 24 74          	add    0x74(%rsp),%eax
    54b1:	66 0f 14 ca          	unpcklpd %xmm2,%xmm1
    54b5:	f2 0f 11 5c 24 20    	movsd  %xmm3,0x20(%rsp)
    54bb:	48 98                	cltq   
  pthread_barrier_wait(barrier);
    54bd:	48 8b 7c 24 10       	mov    0x10(%rsp),%rdi
  work_mem[pid*stride + K] = number_of_centers_to_close;
    54c2:	41 0f 11 0c c2       	movups %xmm1,(%r10,%rax,8)
  pthread_barrier_wait(barrier);
    54c7:	e8 84 5c 00 00       	callq  b150 <_Z19parsec_barrier_waitP16parsec_barrier_t>
  if( pid==0 ) {
    54cc:	8b 7c 24 34          	mov    0x34(%rsp),%edi
    54d0:	f2 0f 10 64 24 20    	movsd  0x20(%rsp),%xmm4
    54d6:	85 ff                	test   %edi,%edi
    54d8:	0f 85 f1 02 00 00    	jne    57cf <_Z5pgainlP6PointsdPliP16parsec_barrier_t+0x112f>
    gl_cost_of_opening_x = z;
    54de:	f2 44 0f 10 4c 24 18 	movsd  0x18(%rsp),%xmm9
    for( int p = 0; p < nproc; p++ ) {
    54e5:	44 8b 2d 1c 9c 00 00 	mov    0x9c1c(%rip),%r13d        # f108 <_ZL5nproc>
    gl_cost_of_opening_x = z;
    54ec:	f2 44 0f 11 0d 73 9b 	movsd  %xmm9,0x9b73(%rip)        # f068 <_ZZ5pgainlP6PointsdPliP16parsec_barrier_tE20gl_cost_of_opening_x>
    54f3:	00 00 
    for( int p = 0; p < nproc; p++ ) {
    54f5:	45 85 ed             	test   %r13d,%r13d
    54f8:	0f 8e fd 01 00 00    	jle    56fb <_Z5pgainlP6PointsdPliP16parsec_barrier_t+0x105b>
    54fe:	48 8b 15 6b 9b 00 00 	mov    0x9b6b(%rip),%rdx        # f070 <_ZZ5pgainlP6PointsdPliP16parsec_barrier_tE8work_mem>
    5505:	45 89 eb             	mov    %r13d,%r11d
    5508:	44 8b 35 51 9b 00 00 	mov    0x9b51(%rip),%r14d        # f060 <_ZZ5pgainlP6PointsdPliP16parsec_barrier_tE29gl_number_of_centers_to_close>
    550f:	45 31 c0             	xor    %r8d,%r8d
    5512:	48 8d 6c 1a f0       	lea    -0x10(%rdx,%rbx,1),%rbp
    5517:	41 83 e3 07          	and    $0x7,%r11d
    551b:	0f 84 26 01 00 00    	je     5647 <_Z5pgainlP6PointsdPliP16parsec_barrier_t+0xfa7>
    5521:	41 83 fb 01          	cmp    $0x1,%r11d
    5525:	0f 84 f0 00 00 00    	je     561b <_Z5pgainlP6PointsdPliP16parsec_barrier_t+0xf7b>
    552b:	41 83 fb 02          	cmp    $0x2,%r11d
    552f:	0f 84 c3 00 00 00    	je     55f8 <_Z5pgainlP6PointsdPliP16parsec_barrier_t+0xf58>
    5535:	41 83 fb 03          	cmp    $0x3,%r11d
    5539:	0f 84 95 00 00 00    	je     55d4 <_Z5pgainlP6PointsdPliP16parsec_barrier_t+0xf34>
    553f:	41 83 fb 04          	cmp    $0x4,%r11d
    5543:	74 6f                	je     55b4 <_Z5pgainlP6PointsdPliP16parsec_barrier_t+0xf14>
    5545:	41 83 fb 05          	cmp    $0x5,%r11d
    5549:	74 45                	je     5590 <_Z5pgainlP6PointsdPliP16parsec_barrier_t+0xef0>
    554b:	41 83 fb 06          	cmp    $0x6,%r11d
    554f:	74 1f                	je     5570 <_Z5pgainlP6PointsdPliP16parsec_barrier_t+0xed0>
      gl_number_of_centers_to_close += (int)work_mem[p*stride + K];
    5551:	f2 44 0f 2c 4d 00    	cvttsd2si 0x0(%rbp),%r9d
      gl_cost_of_opening_x += work_mem[p*stride+K+1];
    5557:	f2 44 0f 58 4d 08    	addsd  0x8(%rbp),%xmm9
    555d:	48 01 dd             	add    %rbx,%rbp
    for( int p = 0; p < nproc; p++ ) {
    5560:	41 b8 01 00 00 00    	mov    $0x1,%r8d
      gl_cost_of_opening_x += work_mem[p*stride+K+1];
    5566:	f2 44 0f 11 4c 24 18 	movsd  %xmm9,0x18(%rsp)
      gl_number_of_centers_to_close += (int)work_mem[p*stride + K];
    556d:	45 01 ce             	add    %r9d,%r14d
    5570:	f2 0f 2c 75 00       	cvttsd2si 0x0(%rbp),%esi
      gl_cost_of_opening_x += work_mem[p*stride+K+1];
    5575:	f2 0f 10 7c 24 18    	movsd  0x18(%rsp),%xmm7
    for( int p = 0; p < nproc; p++ ) {
    557b:	41 83 c0 01          	add    $0x1,%r8d
      gl_cost_of_opening_x += work_mem[p*stride+K+1];
    557f:	f2 0f 58 7d 08       	addsd  0x8(%rbp),%xmm7
    5584:	48 01 dd             	add    %rbx,%rbp
      gl_number_of_centers_to_close += (int)work_mem[p*stride + K];
    5587:	41 01 f6             	add    %esi,%r14d
      gl_cost_of_opening_x += work_mem[p*stride+K+1];
    558a:	f2 0f 11 7c 24 18    	movsd  %xmm7,0x18(%rsp)
      gl_number_of_centers_to_close += (int)work_mem[p*stride + K];
    5590:	f2 44 0f 2c 65 00    	cvttsd2si 0x0(%rbp),%r12d
      gl_cost_of_opening_x += work_mem[p*stride+K+1];
    5596:	f2 44 0f 10 54 24 18 	movsd  0x18(%rsp),%xmm10
    for( int p = 0; p < nproc; p++ ) {
    559d:	41 83 c0 01          	add    $0x1,%r8d
      gl_cost_of_opening_x += work_mem[p*stride+K+1];
    55a1:	f2 44 0f 58 55 08    	addsd  0x8(%rbp),%xmm10
    55a7:	48 01 dd             	add    %rbx,%rbp
      gl_number_of_centers_to_close += (int)work_mem[p*stride + K];
    55aa:	45 01 e6             	add    %r12d,%r14d
      gl_cost_of_opening_x += work_mem[p*stride+K+1];
    55ad:	f2 44 0f 11 54 24 18 	movsd  %xmm10,0x18(%rsp)
      gl_number_of_centers_to_close += (int)work_mem[p*stride + K];
    55b4:	f2 0f 2c 4d 00       	cvttsd2si 0x0(%rbp),%ecx
      gl_cost_of_opening_x += work_mem[p*stride+K+1];
    55b9:	f2 0f 10 44 24 18    	movsd  0x18(%rsp),%xmm0
    for( int p = 0; p < nproc; p++ ) {
    55bf:	41 83 c0 01          	add    $0x1,%r8d
      gl_cost_of_opening_x += work_mem[p*stride+K+1];
    55c3:	f2 0f 58 45 08       	addsd  0x8(%rbp),%xmm0
    55c8:	48 01 dd             	add    %rbx,%rbp
      gl_number_of_centers_to_close += (int)work_mem[p*stride + K];
    55cb:	41 01 ce             	add    %ecx,%r14d
      gl_cost_of_opening_x += work_mem[p*stride+K+1];
    55ce:	f2 0f 11 44 24 18    	movsd  %xmm0,0x18(%rsp)
      gl_number_of_centers_to_close += (int)work_mem[p*stride + K];
    55d4:	f2 44 0f 2c 55 00    	cvttsd2si 0x0(%rbp),%r10d
      gl_cost_of_opening_x += work_mem[p*stride+K+1];
    55da:	f2 44 0f 10 5c 24 18 	movsd  0x18(%rsp),%xmm11
    for( int p = 0; p < nproc; p++ ) {
    55e1:	41 83 c0 01          	add    $0x1,%r8d
      gl_cost_of_opening_x += work_mem[p*stride+K+1];
    55e5:	f2 44 0f 58 5d 08    	addsd  0x8(%rbp),%xmm11
    55eb:	48 01 dd             	add    %rbx,%rbp
      gl_number_of_centers_to_close += (int)work_mem[p*stride + K];
    55ee:	45 01 d6             	add    %r10d,%r14d
      gl_cost_of_opening_x += work_mem[p*stride+K+1];
    55f1:	f2 44 0f 11 5c 24 18 	movsd  %xmm11,0x18(%rsp)
      gl_number_of_centers_to_close += (int)work_mem[p*stride + K];
    55f8:	f2 0f 2c 45 00       	cvttsd2si 0x0(%rbp),%eax
      gl_cost_of_opening_x += work_mem[p*stride+K+1];
    55fd:	f2 44 0f 10 64 24 18 	movsd  0x18(%rsp),%xmm12
    for( int p = 0; p < nproc; p++ ) {
    5604:	41 83 c0 01          	add    $0x1,%r8d
      gl_cost_of_opening_x += work_mem[p*stride+K+1];
    5608:	f2 44 0f 58 65 08    	addsd  0x8(%rbp),%xmm12
    560e:	48 01 dd             	add    %rbx,%rbp
      gl_number_of_centers_to_close += (int)work_mem[p*stride + K];
    5611:	41 01 c6             	add    %eax,%r14d
      gl_cost_of_opening_x += work_mem[p*stride+K+1];
    5614:	f2 44 0f 11 64 24 18 	movsd  %xmm12,0x18(%rsp)
      gl_number_of_centers_to_close += (int)work_mem[p*stride + K];
    561b:	f2 0f 2c 7d 00       	cvttsd2si 0x0(%rbp),%edi
      gl_cost_of_opening_x += work_mem[p*stride+K+1];
    5620:	f2 44 0f 10 6c 24 18 	movsd  0x18(%rsp),%xmm13
    for( int p = 0; p < nproc; p++ ) {
    5627:	41 83 c0 01          	add    $0x1,%r8d
      gl_cost_of_opening_x += work_mem[p*stride+K+1];
    562b:	f2 44 0f 58 6d 08    	addsd  0x8(%rbp),%xmm13
    5631:	48 01 dd             	add    %rbx,%rbp
      gl_number_of_centers_to_close += (int)work_mem[p*stride + K];
    5634:	41 01 fe             	add    %edi,%r14d
      gl_cost_of_opening_x += work_mem[p*stride+K+1];
    5637:	f2 44 0f 11 6c 24 18 	movsd  %xmm13,0x18(%rsp)
    for( int p = 0; p < nproc; p++ ) {
    563e:	45 39 e8             	cmp    %r13d,%r8d
    5641:	0f 84 9d 00 00 00    	je     56e4 <_Z5pgainlP6PointsdPliP16parsec_barrier_t+0x1044>
      gl_number_of_centers_to_close += (int)work_mem[p*stride + K];
    5647:	f2 0f 2c 55 00       	cvttsd2si 0x0(%rbp),%edx
      gl_cost_of_opening_x += work_mem[p*stride+K+1];
    564c:	f2 0f 10 6c 24 18    	movsd  0x18(%rsp),%xmm5
    for( int p = 0; p < nproc; p++ ) {
    5652:	41 83 c0 08          	add    $0x8,%r8d
      gl_cost_of_opening_x += work_mem[p*stride+K+1];
    5656:	f2 0f 58 6d 08       	addsd  0x8(%rbp),%xmm5
    565b:	48 01 dd             	add    %rbx,%rbp
      gl_number_of_centers_to_close += (int)work_mem[p*stride + K];
    565e:	f2 44 0f 2c 5d 00    	cvttsd2si 0x0(%rbp),%r11d
      gl_cost_of_opening_x += work_mem[p*stride+K+1];
    5664:	f2 0f 58 6d 08       	addsd  0x8(%rbp),%xmm5
    5669:	48 01 dd             	add    %rbx,%rbp
      gl_number_of_centers_to_close += (int)work_mem[p*stride + K];
    566c:	f2 44 0f 2c 4d 00    	cvttsd2si 0x0(%rbp),%r9d
      gl_cost_of_opening_x += work_mem[p*stride+K+1];
    5672:	f2 0f 58 6d 08       	addsd  0x8(%rbp),%xmm5
    5677:	48 01 dd             	add    %rbx,%rbp
      gl_number_of_centers_to_close += (int)work_mem[p*stride + K];
    567a:	f2 0f 2c 75 00       	cvttsd2si 0x0(%rbp),%esi
      gl_cost_of_opening_x += work_mem[p*stride+K+1];
    567f:	f2 0f 58 6d 08       	addsd  0x8(%rbp),%xmm5
    5684:	48 01 dd             	add    %rbx,%rbp
      gl_number_of_centers_to_close += (int)work_mem[p*stride + K];
    5687:	41 01 d6             	add    %edx,%r14d
    568a:	f2 44 0f 2c 65 00    	cvttsd2si 0x0(%rbp),%r12d
      gl_cost_of_opening_x += work_mem[p*stride+K+1];
    5690:	f2 0f 58 6d 08       	addsd  0x8(%rbp),%xmm5
    5695:	48 01 dd             	add    %rbx,%rbp
      gl_number_of_centers_to_close += (int)work_mem[p*stride + K];
    5698:	f2 0f 2c 4d 00       	cvttsd2si 0x0(%rbp),%ecx
      gl_cost_of_opening_x += work_mem[p*stride+K+1];
    569d:	f2 0f 58 6d 08       	addsd  0x8(%rbp),%xmm5
      gl_number_of_centers_to_close += (int)work_mem[p*stride + K];
    56a2:	45 01 de             	add    %r11d,%r14d
    56a5:	48 01 dd             	add    %rbx,%rbp
    56a8:	f2 44 0f 2c 55 00    	cvttsd2si 0x0(%rbp),%r10d
      gl_cost_of_opening_x += work_mem[p*stride+K+1];
    56ae:	f2 0f 58 6d 08       	addsd  0x8(%rbp),%xmm5
      gl_number_of_centers_to_close += (int)work_mem[p*stride + K];
    56b3:	45 01 ce             	add    %r9d,%r14d
    56b6:	48 01 dd             	add    %rbx,%rbp
    56b9:	f2 0f 2c 45 00       	cvttsd2si 0x0(%rbp),%eax
    56be:	41 01 f6             	add    %esi,%r14d
      gl_cost_of_opening_x += work_mem[p*stride+K+1];
    56c1:	f2 0f 58 6d 08       	addsd  0x8(%rbp),%xmm5
    56c6:	48 01 dd             	add    %rbx,%rbp
      gl_number_of_centers_to_close += (int)work_mem[p*stride + K];
    56c9:	45 01 e6             	add    %r12d,%r14d
    56cc:	41 01 ce             	add    %ecx,%r14d
    56cf:	45 01 d6             	add    %r10d,%r14d
      gl_cost_of_opening_x += work_mem[p*stride+K+1];
    56d2:	f2 0f 11 6c 24 18    	movsd  %xmm5,0x18(%rsp)
      gl_number_of_centers_to_close += (int)work_mem[p*stride + K];
    56d8:	41 01 c6             	add    %eax,%r14d
    for( int p = 0; p < nproc; p++ ) {
    56db:	45 39 e8             	cmp    %r13d,%r8d
    56de:	0f 85 63 ff ff ff    	jne    5647 <_Z5pgainlP6PointsdPliP16parsec_barrier_t+0xfa7>
    56e4:	f2 44 0f 10 74 24 18 	movsd  0x18(%rsp),%xmm14
    56eb:	44 89 35 6e 99 00 00 	mov    %r14d,0x996e(%rip)        # f060 <_ZZ5pgainlP6PointsdPliP16parsec_barrier_tE29gl_number_of_centers_to_close>
    56f2:	f2 44 0f 11 35 6d 99 	movsd  %xmm14,0x996d(%rip)        # f068 <_ZZ5pgainlP6PointsdPliP16parsec_barrier_tE20gl_cost_of_opening_x>
    56f9:	00 00 
  pthread_barrier_wait(barrier);
    56fb:	48 8b 7c 24 10       	mov    0x10(%rsp),%rdi
    5700:	f2 0f 11 64 24 18    	movsd  %xmm4,0x18(%rsp)
    5706:	e8 45 5a 00 00       	callq  b150 <_Z19parsec_barrier_waitP16parsec_barrier_t>
  if ( gl_cost_of_opening_x < 0 ) {
    570b:	f2 44 0f 10 44 24 18 	movsd  0x18(%rsp),%xmm8
    5712:	66 44 0f 2f 05 4d 99 	comisd 0x994d(%rip),%xmm8        # f068 <_ZZ5pgainlP6PointsdPliP16parsec_barrier_tE20gl_cost_of_opening_x>
    5719:	00 00 
    571b:	0f 87 df 00 00 00    	ja     5800 <_Z5pgainlP6PointsdPliP16parsec_barrier_t+0x1160>
      gl_cost_of_opening_x = 0;  // the value we'll return
    5721:	48 c7 05 3c 99 00 00 	movq   $0x0,0x993c(%rip)        # f068 <_ZZ5pgainlP6PointsdPliP16parsec_barrier_tE20gl_cost_of_opening_x>
    5728:	00 00 00 00 
  pthread_barrier_wait(barrier);
    572c:	48 8b 7c 24 10       	mov    0x10(%rsp),%rdi
    5731:	e8 1a 5a 00 00       	callq  b150 <_Z19parsec_barrier_waitP16parsec_barrier_t>
    free(work_mem);
    5736:	48 8b 3d 33 99 00 00 	mov    0x9933(%rip),%rdi        # f070 <_ZZ5pgainlP6PointsdPliP16parsec_barrier_tE8work_mem>
    573d:	e8 ee cc ff ff       	callq  2430 <free@plt>
  return -gl_cost_of_opening_x;
    5742:	f2 0f 10 05 1e 99 00 	movsd  0x991e(%rip),%xmm0        # f068 <_ZZ5pgainlP6PointsdPliP16parsec_barrier_tE20gl_cost_of_opening_x>
    5749:	00 
    574a:	66 0f 57 05 ae 6e 00 	xorpd  0x6eae(%rip),%xmm0        # c600 <_ZTS10FileStream+0x58>
    5751:	00 
}
    5752:	48 81 c4 98 00 00 00 	add    $0x98,%rsp
    5759:	5b                   	pop    %rbx
    575a:	5d                   	pop    %rbp
    575b:	41 5c                	pop    %r12
    575d:	41 5d                	pop    %r13
    575f:	41 5e                	pop    %r14
    5761:	41 5f                	pop    %r15
    5763:	c3                   	retq   
      center_table[i] = count++;
    5764:	41 89 0c 83          	mov    %ecx,(%r11,%rax,4)
    5768:	83 c1 01             	add    $0x1,%ecx
    576b:	e9 f9 f0 ff ff       	jmpq   4869 <_Z5pgainlP6PointsdPliP16parsec_barrier_t+0x1c9>
      lower[center_table[assign]] += current_cost - x_cost;
    5770:	48 63 46 b8          	movslq -0x48(%rsi),%rax
    5774:	48 8b 4c 24 38       	mov    0x38(%rsp),%rcx
    5779:	f3 0f 5c e8          	subss  %xmm0,%xmm5
    577d:	66 45 0f ef f6       	pxor   %xmm14,%xmm14
    5782:	48 8b 7c 24 28       	mov    0x28(%rsp),%rdi
    5787:	4c 63 14 81          	movslq (%rcx,%rax,4),%r10
    578b:	f3 44 0f 5a f5       	cvtss2sd %xmm5,%xmm14
    5790:	4a 8d 14 d7          	lea    (%rdi,%r10,8),%rdx
    5794:	48 03 54 24 40       	add    0x40(%rsp),%rdx
    5799:	f2 44 0f 58 32       	addsd  (%rdx),%xmm14
    579e:	f2 44 0f 11 32       	movsd  %xmm14,(%rdx)
    57a3:	e9 69 fb ff ff       	jmpq   5311 <_Z5pgainlP6PointsdPliP16parsec_barrier_t+0xc71>
    57a8:	0f 1f 84 00 00 00 00 	nopl   0x0(%rax,%rax,1)
    57af:	00 
  float result=0.0;
    57b0:	66 0f ef c0          	pxor   %xmm0,%xmm0
    57b4:	e9 2e fb ff ff       	jmpq   52e7 <_Z5pgainlP6PointsdPliP16parsec_barrier_t+0xc47>
    57b9:	66 0f ef c0          	pxor   %xmm0,%xmm0
  for (i=0;i<dim;i++)
    57bd:	31 c0                	xor    %eax,%eax
    57bf:	e9 c9 fa ff ff       	jmpq   528d <_Z5pgainlP6PointsdPliP16parsec_barrier_t+0xbed>
    57c4:	31 db                	xor    %ebx,%ebx
    57c6:	66 0f ef c0          	pxor   %xmm0,%xmm0
    57ca:	e9 4e f8 ff ff       	jmpq   501d <_Z5pgainlP6PointsdPliP16parsec_barrier_t+0x97d>
  pthread_barrier_wait(barrier);
    57cf:	48 8b 7c 24 10       	mov    0x10(%rsp),%rdi
    57d4:	f2 0f 11 64 24 18    	movsd  %xmm4,0x18(%rsp)
    57da:	e8 71 59 00 00       	callq  b150 <_Z19parsec_barrier_waitP16parsec_barrier_t>
  if ( gl_cost_of_opening_x < 0 ) {
    57df:	f2 44 0f 10 44 24 18 	movsd  0x18(%rsp),%xmm8
    57e6:	66 44 0f 2f 05 79 98 	comisd 0x9879(%rip),%xmm8        # f068 <_ZZ5pgainlP6PointsdPliP16parsec_barrier_tE20gl_cost_of_opening_x>
    57ed:	00 00 
    57ef:	77 0f                	ja     5800 <_Z5pgainlP6PointsdPliP16parsec_barrier_t+0x1160>
  pthread_barrier_wait(barrier);
    57f1:	48 8b 7c 24 10       	mov    0x10(%rsp),%rdi
    57f6:	e8 55 59 00 00       	callq  b150 <_Z19parsec_barrier_waitP16parsec_barrier_t>
  if( pid == 0 ) {
    57fb:	e9 42 ff ff ff       	jmpq   5742 <_Z5pgainlP6PointsdPliP16parsec_barrier_t+0x10a2>
    for ( int i = k1; i < k2; i++ ) {
    5800:	4c 3b 7c 24 08       	cmp    0x8(%rsp),%r15
    5805:	0f 8e 46 07 00 00    	jle    5f51 <_Z5pgainlP6PointsdPliP16parsec_barrier_t+0x18b1>
      bool close_center = gl_lower[center_table[points->p[i].assign]] > 0 ;
    580b:	48 8b 5c 24 50       	mov    0x50(%rsp),%rbx
	  dist(points->p[i], points->p[x], points->dim);
    5810:	4c 8b 6c 24 48       	mov    0x48(%rsp),%r13
    5815:	4c 89 7c 24 20       	mov    %r15,0x20(%rsp)
    581a:	48 8b 54 24 08       	mov    0x8(%rsp),%rdx
      if ( switch_membership[i] || close_center ) {
    581f:	4c 8b 05 fa 98 00 00 	mov    0x98fa(%rip),%r8        # f120 <_ZL17switch_membership>
      bool close_center = gl_lower[center_table[points->p[i].assign]] > 0 ;
    5826:	48 8b 6b 10          	mov    0x10(%rbx),%rbp
	  dist(points->p[i], points->p[x], points->dim);
    582a:	49 c1 e5 05          	shl    $0x5,%r13
      bool close_center = gl_lower[center_table[points->p[i].assign]] > 0 ;
    582e:	4c 8b 35 db 98 00 00 	mov    0x98db(%rip),%r14        # f110 <_ZL12center_table>
    5835:	49 89 d3             	mov    %rdx,%r11
    5838:	4f 8d 24 38          	lea    (%r8,%r15,1),%r12
	  dist(points->p[i], points->p[x], points->dim);
    583c:	4a 8d 7c 2d 00       	lea    0x0(%rbp,%r13,1),%rdi
    5841:	4c 89 5c 24 28       	mov    %r11,0x28(%rsp)
    5846:	4c 8b 6c 24 60       	mov    0x60(%rsp),%r13
    584b:	48 89 7c 24 18       	mov    %rdi,0x18(%rsp)
    5850:	49 8d 3c 10          	lea    (%r8,%rdx,1),%rdi
    5854:	48 c1 e2 05          	shl    $0x5,%rdx
    5858:	48 8d 44 15 40       	lea    0x40(%rbp,%rdx,1),%rax
    585d:	eb 28                	jmp    5887 <_Z5pgainlP6PointsdPliP16parsec_barrier_t+0x11e7>
    585f:	90                   	nop
      bool close_center = gl_lower[center_table[points->p[i].assign]] > 0 ;
    5860:	4c 8b 78 d0          	mov    -0x30(%rax),%r15
    5864:	4b 63 34 be          	movslq (%r14,%r15,4),%rsi
      if ( switch_membership[i] || close_center ) {
    5868:	f2 41 0f 10 74 f5 00 	movsd  0x0(%r13,%rsi,8),%xmm6
    586f:	66 41 0f 2f f0       	comisd %xmm8,%xmm6
    5874:	77 16                	ja     588c <_Z5pgainlP6PointsdPliP16parsec_barrier_t+0x11ec>
    for ( int i = k1; i < k2; i++ ) {
    5876:	48 83 c7 01          	add    $0x1,%rdi
    587a:	48 83 c0 20          	add    $0x20,%rax
    587e:	4c 39 e7             	cmp    %r12,%rdi
    5881:	0f 84 69 04 00 00    	je     5cf0 <_Z5pgainlP6PointsdPliP16parsec_barrier_t+0x1650>
      if ( switch_membership[i] || close_center ) {
    5887:	80 3f 00             	cmpb   $0x0,(%rdi)
    588a:	74 d4                	je     5860 <_Z5pgainlP6PointsdPliP16parsec_barrier_t+0x11c0>
	  dist(points->p[i], points->p[x], points->dim);
    588c:	48 8b 4c 24 50       	mov    0x50(%rsp),%rcx
    5891:	0f 18 08             	prefetcht0 (%rax)
    5894:	4c 8b 54 24 18       	mov    0x18(%rsp),%r10
    5899:	0f 18 48 08          	prefetcht0 0x8(%rax)
	points->p[i].cost = points->p[i].weight *
    589d:	f3 0f 10 50 c0       	movss  -0x40(%rax),%xmm2
    58a2:	4c 8b 48 c8          	mov    -0x38(%rax),%r9
	  dist(points->p[i], points->p[x], points->dim);
    58a6:	44 8b 41 08          	mov    0x8(%rcx),%r8d
    58aa:	4d 8b 52 08          	mov    0x8(%r10),%r10
  for (i=0;i<dim;i++)
    58ae:	45 85 c0             	test   %r8d,%r8d
    58b1:	0f 8e df 07 00 00    	jle    6096 <_Z5pgainlP6PointsdPliP16parsec_barrier_t+0x19f6>
    58b7:	41 8d 58 ff          	lea    -0x1(%r8),%ebx
    58bb:	83 fb 02             	cmp    $0x2,%ebx
    58be:	0f 86 dc 07 00 00    	jbe    60a0 <_Z5pgainlP6PointsdPliP16parsec_barrier_t+0x1a00>
    58c4:	45 89 c3             	mov    %r8d,%r11d
    58c7:	41 c1 eb 02          	shr    $0x2,%r11d
    58cb:	41 83 fb 04          	cmp    $0x4,%r11d
    58cf:	0f 86 d7 07 00 00    	jbe    60ac <_Z5pgainlP6PointsdPliP16parsec_barrier_t+0x1a0c>
    58d5:	41 8d 73 fb          	lea    -0x5(%r11),%esi
    58d9:	4c 89 d2             	mov    %r10,%rdx
    58dc:	4c 89 c9             	mov    %r9,%rcx
    58df:	bd 04 00 00 00       	mov    $0x4,%ebp
    58e4:	83 e6 fc             	and    $0xfffffffc,%esi
  float result=0.0;
    58e7:	66 0f ef c0          	pxor   %xmm0,%xmm0
    58eb:	83 c6 08             	add    $0x8,%esi
    58ee:	eb 03                	jmp    58f3 <_Z5pgainlP6PointsdPliP16parsec_barrier_t+0x1253>
    result += (p1.coord[i] - p2.coord[i])*(p1.coord[i] - p2.coord[i]);
    58f0:	44 89 fd             	mov    %r15d,%ebp
    58f3:	0f 10 1a             	movups (%rdx),%xmm3
    58f6:	44 0f 10 39          	movups (%rcx),%xmm15
    58fa:	44 8d 7d 04          	lea    0x4(%rbp),%r15d
    58fe:	0f 18 89 00 01 00 00 	prefetcht0 0x100(%rcx)
    5905:	0f 10 7a 10          	movups 0x10(%rdx),%xmm7
    5909:	44 0f 10 51 10       	movups 0x10(%rcx),%xmm10
    590e:	48 83 c1 40          	add    $0x40,%rcx
    5912:	0f 18 8a 00 01 00 00 	prefetcht0 0x100(%rdx)
    5919:	44 0f 5c fb          	subps  %xmm3,%xmm15
    591d:	44 0f 10 71 e0       	movups -0x20(%rcx),%xmm14
    5922:	0f 10 6a 20          	movups 0x20(%rdx),%xmm5
    5926:	48 83 c2 40          	add    $0x40,%rdx
    592a:	44 0f 5c d7          	subps  %xmm7,%xmm10
    592e:	44 0f 5c f5          	subps  %xmm5,%xmm14
    5932:	45 0f 59 ff          	mulps  %xmm15,%xmm15
    5936:	45 0f 59 d2          	mulps  %xmm10,%xmm10
    593a:	45 0f 59 f6          	mulps  %xmm14,%xmm14
    593e:	f3 41 0f 58 c7       	addss  %xmm15,%xmm0
    5943:	45 0f 28 cf          	movaps %xmm15,%xmm9
    5947:	45 0f c6 cf 55       	shufps $0x55,%xmm15,%xmm9
    594c:	45 0f 28 e2          	movaps %xmm10,%xmm12
    5950:	41 0f 28 ca          	movaps %xmm10,%xmm1
    5954:	45 0f c6 e2 55       	shufps $0x55,%xmm10,%xmm12
    5959:	41 0f 15 ca          	unpckhps %xmm10,%xmm1
    595d:	41 0f 28 f6          	movaps %xmm14,%xmm6
    5961:	f3 44 0f 58 c8       	addss  %xmm0,%xmm9
    5966:	41 0f 28 c7          	movaps %xmm15,%xmm0
    596a:	44 0f 28 e9          	movaps %xmm1,%xmm13
    596e:	41 0f 15 c7          	unpckhps %xmm15,%xmm0
    5972:	45 0f c6 ff ff       	shufps $0xff,%xmm15,%xmm15
    5977:	41 0f 28 ce          	movaps %xmm14,%xmm1
    597b:	0f 28 e0             	movaps %xmm0,%xmm4
    597e:	0f 10 41 f0          	movups -0x10(%rcx),%xmm0
    5982:	41 0f c6 ce 55       	shufps $0x55,%xmm14,%xmm1
    5987:	f3 41 0f 58 e1       	addss  %xmm9,%xmm4
    598c:	44 0f 10 4a f0       	movups -0x10(%rdx),%xmm9
    5991:	41 0f 5c c1          	subps  %xmm9,%xmm0
    5995:	f3 44 0f 58 fc       	addss  %xmm4,%xmm15
    599a:	0f 59 c0             	mulps  %xmm0,%xmm0
    599d:	f3 45 0f 58 fa       	addss  %xmm10,%xmm15
    59a2:	45 0f c6 d2 ff       	shufps $0xff,%xmm10,%xmm10
    59a7:	f3 45 0f 58 e7       	addss  %xmm15,%xmm12
    59ac:	0f 28 e0             	movaps %xmm0,%xmm4
    59af:	0f 28 f8             	movaps %xmm0,%xmm7
    59b2:	0f 15 f8             	unpckhps %xmm0,%xmm7
    59b5:	f3 45 0f 58 ec       	addss  %xmm12,%xmm13
    59ba:	f3 45 0f 58 ea       	addss  %xmm10,%xmm13
    59bf:	f3 41 0f 58 f5       	addss  %xmm13,%xmm6
    59c4:	f3 0f 58 f1          	addss  %xmm1,%xmm6
    59c8:	41 0f 28 ce          	movaps %xmm14,%xmm1
    59cc:	41 0f 15 ce          	unpckhps %xmm14,%xmm1
    59d0:	45 0f c6 f6 ff       	shufps $0xff,%xmm14,%xmm14
    59d5:	0f 28 d9             	movaps %xmm1,%xmm3
    59d8:	0f 28 c8             	movaps %xmm0,%xmm1
    59db:	f3 0f 58 de          	addss  %xmm6,%xmm3
    59df:	0f c6 c8 55          	shufps $0x55,%xmm0,%xmm1
    59e3:	0f c6 c0 ff          	shufps $0xff,%xmm0,%xmm0
    59e7:	f3 41 0f 58 de       	addss  %xmm14,%xmm3
    59ec:	f3 0f 58 e3          	addss  %xmm3,%xmm4
    59f0:	f3 0f 58 e1          	addss  %xmm1,%xmm4
    59f4:	f3 0f 58 fc          	addss  %xmm4,%xmm7
    59f8:	f3 0f 58 c7          	addss  %xmm7,%xmm0
  for (i=0;i<dim;i++)
    59fc:	44 39 fe             	cmp    %r15d,%esi
    59ff:	0f 85 eb fe ff ff    	jne    58f0 <_Z5pgainlP6PointsdPliP16parsec_barrier_t+0x1250>
    result += (p1.coord[i] - p2.coord[i])*(p1.coord[i] - p2.coord[i]);
    5a05:	44 0f 10 19          	movups (%rcx),%xmm11
    5a09:	44 0f 10 22          	movups (%rdx),%xmm12
    5a0d:	41 89 ef             	mov    %ebp,%r15d
    5a10:	8d 5d 01             	lea    0x1(%rbp),%ebx
    5a13:	41 f7 d7             	not    %r15d
    5a16:	be 10 00 00 00       	mov    $0x10,%esi
    5a1b:	45 0f 5c dc          	subps  %xmm12,%xmm11
    5a1f:	45 01 df             	add    %r11d,%r15d
    5a22:	41 83 e7 03          	and    $0x3,%r15d
    5a26:	45 0f 59 db          	mulps  %xmm11,%xmm11
    5a2a:	f3 41 0f 58 c3       	addss  %xmm11,%xmm0
    5a2f:	41 0f 28 eb          	movaps %xmm11,%xmm5
    5a33:	41 0f c6 eb 55       	shufps $0x55,%xmm11,%xmm5
    5a38:	f3 0f 58 e8          	addss  %xmm0,%xmm5
    5a3c:	41 0f 28 c3          	movaps %xmm11,%xmm0
    5a40:	41 0f 15 c3          	unpckhps %xmm11,%xmm0
    5a44:	45 0f c6 db ff       	shufps $0xff,%xmm11,%xmm11
    5a49:	45 0f 28 d3          	movaps %xmm11,%xmm10
    5a4d:	0f 28 f0             	movaps %xmm0,%xmm6
    5a50:	f3 0f 58 f5          	addss  %xmm5,%xmm6
    5a54:	f3 44 0f 58 d6       	addss  %xmm6,%xmm10
  for (i=0;i<dim;i++)
    5a59:	44 39 db             	cmp    %r11d,%ebx
    5a5c:	0f 83 00 02 00 00    	jae    5c62 <_Z5pgainlP6PointsdPliP16parsec_barrier_t+0x15c2>
    5a62:	45 85 ff             	test   %r15d,%r15d
    5a65:	0f 84 ed 00 00 00    	je     5b58 <_Z5pgainlP6PointsdPliP16parsec_barrier_t+0x14b8>
    5a6b:	41 83 ff 01          	cmp    $0x1,%r15d
    5a6f:	0f 84 8f 00 00 00    	je     5b04 <_Z5pgainlP6PointsdPliP16parsec_barrier_t+0x1464>
    5a75:	41 83 ff 02          	cmp    $0x2,%r15d
    5a79:	74 47                	je     5ac2 <_Z5pgainlP6PointsdPliP16parsec_barrier_t+0x1422>
    result += (p1.coord[i] - p2.coord[i])*(p1.coord[i] - p2.coord[i]);
    5a7b:	44 0f 10 79 10       	movups 0x10(%rcx),%xmm15
    5a80:	0f 10 5a 10          	movups 0x10(%rdx),%xmm3
    5a84:	be 20 00 00 00       	mov    $0x20,%esi
    5a89:	8d 5d 02             	lea    0x2(%rbp),%ebx
    5a8c:	44 0f 5c fb          	subps  %xmm3,%xmm15
    5a90:	45 0f 59 ff          	mulps  %xmm15,%xmm15
    5a94:	f3 45 0f 58 d7       	addss  %xmm15,%xmm10
    5a99:	41 0f 28 cf          	movaps %xmm15,%xmm1
    5a9d:	41 0f c6 cf 55       	shufps $0x55,%xmm15,%xmm1
    5aa2:	f3 41 0f 58 ca       	addss  %xmm10,%xmm1
    5aa7:	45 0f 28 d7          	movaps %xmm15,%xmm10
    5aab:	45 0f 15 d7          	unpckhps %xmm15,%xmm10
    5aaf:	f3 41 0f 58 ca       	addss  %xmm10,%xmm1
    5ab4:	45 0f 28 d7          	movaps %xmm15,%xmm10
    5ab8:	45 0f c6 d7 ff       	shufps $0xff,%xmm15,%xmm10
    5abd:	f3 44 0f 58 d1       	addss  %xmm1,%xmm10
    5ac2:	0f 10 3c 31          	movups (%rcx,%rsi,1),%xmm7
    5ac6:	44 0f 10 1c 32       	movups (%rdx,%rsi,1),%xmm11
    5acb:	83 c3 01             	add    $0x1,%ebx
    5ace:	48 83 c6 10          	add    $0x10,%rsi
    5ad2:	41 0f 5c fb          	subps  %xmm11,%xmm7
    5ad6:	0f 59 ff             	mulps  %xmm7,%xmm7
    5ad9:	f3 44 0f 58 d7       	addss  %xmm7,%xmm10
    5ade:	44 0f 28 ef          	movaps %xmm7,%xmm13
    5ae2:	0f 28 ef             	movaps %xmm7,%xmm5
    5ae5:	44 0f c6 ef 55       	shufps $0x55,%xmm7,%xmm13
    5aea:	0f 15 ef             	unpckhps %xmm7,%xmm5
    5aed:	0f c6 ff ff          	shufps $0xff,%xmm7,%xmm7
    5af1:	f3 45 0f 58 ea       	addss  %xmm10,%xmm13
    5af6:	44 0f 28 d7          	movaps %xmm7,%xmm10
    5afa:	f3 44 0f 58 ed       	addss  %xmm5,%xmm13
    5aff:	f3 45 0f 58 d5       	addss  %xmm13,%xmm10
    5b04:	44 0f 10 34 31       	movups (%rcx,%rsi,1),%xmm14
    5b09:	0f 10 24 32          	movups (%rdx,%rsi,1),%xmm4
    5b0d:	83 c3 01             	add    $0x1,%ebx
    5b10:	48 83 c6 10          	add    $0x10,%rsi
    5b14:	44 0f 5c f4          	subps  %xmm4,%xmm14
    5b18:	45 0f 59 f6          	mulps  %xmm14,%xmm14
    5b1c:	f3 45 0f 58 d6       	addss  %xmm14,%xmm10
    5b21:	45 0f 28 fe          	movaps %xmm14,%xmm15
    5b25:	41 0f 28 c6          	movaps %xmm14,%xmm0
    5b29:	45 0f c6 fe 55       	shufps $0x55,%xmm14,%xmm15
    5b2e:	41 0f 15 c6          	unpckhps %xmm14,%xmm0
    5b32:	45 0f c6 f6 ff       	shufps $0xff,%xmm14,%xmm14
    5b37:	f3 45 0f 58 fa       	addss  %xmm10,%xmm15
    5b3c:	45 0f 28 d6          	movaps %xmm14,%xmm10
    5b40:	f3 44 0f 58 f8       	addss  %xmm0,%xmm15
    5b45:	f3 45 0f 58 d7       	addss  %xmm15,%xmm10
  for (i=0;i<dim;i++)
    5b4a:	44 39 db             	cmp    %r11d,%ebx
    5b4d:	0f 83 0f 01 00 00    	jae    5c62 <_Z5pgainlP6PointsdPliP16parsec_barrier_t+0x15c2>
    5b53:	0f 1f 44 00 00       	nopl   0x0(%rax,%rax,1)
    result += (p1.coord[i] - p2.coord[i])*(p1.coord[i] - p2.coord[i]);
    5b58:	44 0f 10 0c 32       	movups (%rdx,%rsi,1),%xmm9
    5b5d:	0f 10 1c 31          	movups (%rcx,%rsi,1),%xmm3
    5b61:	83 c3 04             	add    $0x4,%ebx
    5b64:	44 0f 10 64 31 10    	movups 0x10(%rcx,%rsi,1),%xmm12
    5b6a:	44 0f 10 6c 32 10    	movups 0x10(%rdx,%rsi,1),%xmm13
    5b70:	41 0f 5c d9          	subps  %xmm9,%xmm3
    5b74:	0f 10 64 32 20       	movups 0x20(%rdx,%rsi,1),%xmm4
    5b79:	0f 10 4c 31 30       	movups 0x30(%rcx,%rsi,1),%xmm1
    5b7e:	45 0f 5c e5          	subps  %xmm13,%xmm12
    5b82:	0f 59 db             	mulps  %xmm3,%xmm3
    5b85:	45 0f 59 e4          	mulps  %xmm12,%xmm12
    5b89:	f3 44 0f 58 d3       	addss  %xmm3,%xmm10
    5b8e:	0f 28 eb             	movaps %xmm3,%xmm5
    5b91:	0f 28 c3             	movaps %xmm3,%xmm0
    5b94:	0f c6 eb 55          	shufps $0x55,%xmm3,%xmm5
    5b98:	0f 28 fd             	movaps %xmm5,%xmm7
    5b9b:	0f 15 c3             	unpckhps %xmm3,%xmm0
    5b9e:	0f c6 db ff          	shufps $0xff,%xmm3,%xmm3
    5ba2:	44 0f 28 d8          	movaps %xmm0,%xmm11
    5ba6:	41 0f 28 f4          	movaps %xmm12,%xmm6
    5baa:	41 0f 28 c4          	movaps %xmm12,%xmm0
    5bae:	0f 10 6c 32 30       	movups 0x30(%rdx,%rsi,1),%xmm5
    5bb3:	f3 41 0f 58 fa       	addss  %xmm10,%xmm7
    5bb8:	44 0f 10 54 31 20    	movups 0x20(%rcx,%rsi,1),%xmm10
    5bbe:	41 0f c6 f4 55       	shufps $0x55,%xmm12,%xmm6
    5bc3:	41 0f 15 c4          	unpckhps %xmm12,%xmm0
    5bc7:	44 0f 28 f8          	movaps %xmm0,%xmm15
    5bcb:	0f 5c cd             	subps  %xmm5,%xmm1
    5bce:	48 83 c6 40          	add    $0x40,%rsi
    5bd2:	44 0f 5c d4          	subps  %xmm4,%xmm10
    5bd6:	f3 44 0f 58 df       	addss  %xmm7,%xmm11
    5bdb:	0f 59 c9             	mulps  %xmm1,%xmm1
    5bde:	45 0f 59 d2          	mulps  %xmm10,%xmm10
    5be2:	f3 44 0f 58 db       	addss  %xmm3,%xmm11
    5be7:	f3 45 0f 58 dc       	addss  %xmm12,%xmm11
    5bec:	45 0f c6 e4 ff       	shufps $0xff,%xmm12,%xmm12
    5bf1:	45 0f 28 ca          	movaps %xmm10,%xmm9
    5bf5:	41 0f 28 c2          	movaps %xmm10,%xmm0
    5bf9:	45 0f c6 ca 55       	shufps $0x55,%xmm10,%xmm9
    5bfe:	41 0f 15 c2          	unpckhps %xmm10,%xmm0
    5c02:	f3 41 0f 58 f3       	addss  %xmm11,%xmm6
    5c07:	44 0f 28 d8          	movaps %xmm0,%xmm11
    5c0b:	0f 28 c1             	movaps %xmm1,%xmm0
    5c0e:	0f 15 c1             	unpckhps %xmm1,%xmm0
    5c11:	f3 44 0f 58 fe       	addss  %xmm6,%xmm15
    5c16:	f3 45 0f 58 fc       	addss  %xmm12,%xmm15
    5c1b:	44 0f 28 e1          	movaps %xmm1,%xmm12
    5c1f:	44 0f c6 e1 55       	shufps $0x55,%xmm1,%xmm12
    5c24:	f3 45 0f 58 fa       	addss  %xmm10,%xmm15
    5c29:	45 0f c6 d2 ff       	shufps $0xff,%xmm10,%xmm10
    5c2e:	f3 45 0f 58 cf       	addss  %xmm15,%xmm9
    5c33:	f3 45 0f 58 d9       	addss  %xmm9,%xmm11
    5c38:	f3 45 0f 58 da       	addss  %xmm10,%xmm11
    5c3d:	44 0f 28 d0          	movaps %xmm0,%xmm10
    5c41:	f3 44 0f 58 d9       	addss  %xmm1,%xmm11
    5c46:	0f c6 c9 ff          	shufps $0xff,%xmm1,%xmm1
    5c4a:	f3 45 0f 58 e3       	addss  %xmm11,%xmm12
    5c4f:	f3 45 0f 58 d4       	addss  %xmm12,%xmm10
    5c54:	f3 44 0f 58 d1       	addss  %xmm1,%xmm10
  for (i=0;i<dim;i++)
    5c59:	44 39 db             	cmp    %r11d,%ebx
    5c5c:	0f 82 f6 fe ff ff    	jb     5b58 <_Z5pgainlP6PointsdPliP16parsec_barrier_t+0x14b8>
    5c62:	44 89 c5             	mov    %r8d,%ebp
    5c65:	83 e5 fc             	and    $0xfffffffc,%ebp
    5c68:	44 39 c5             	cmp    %r8d,%ebp
    5c6b:	74 5a                	je     5cc7 <_Z5pgainlP6PointsdPliP16parsec_barrier_t+0x1627>
    result += (p1.coord[i] - p2.coord[i])*(p1.coord[i] - p2.coord[i]);
    5c6d:	4c 63 dd             	movslq %ebp,%r11
  for (i=0;i<dim;i++)
    5c70:	8d 55 01             	lea    0x1(%rbp),%edx
    result += (p1.coord[i] - p2.coord[i])*(p1.coord[i] - p2.coord[i]);
    5c73:	f3 47 0f 10 2c 99    	movss  (%r9,%r11,4),%xmm13
    5c79:	f3 47 0f 5c 2c 9a    	subss  (%r10,%r11,4),%xmm13
    5c7f:	f3 45 0f 59 ed       	mulss  %xmm13,%xmm13
    5c84:	f3 45 0f 58 d5       	addss  %xmm13,%xmm10
  for (i=0;i<dim;i++)
    5c89:	41 39 d0             	cmp    %edx,%r8d
    5c8c:	7e 39                	jle    5cc7 <_Z5pgainlP6PointsdPliP16parsec_barrier_t+0x1627>
    result += (p1.coord[i] - p2.coord[i])*(p1.coord[i] - p2.coord[i]);
    5c8e:	48 63 ca             	movslq %edx,%rcx
  for (i=0;i<dim;i++)
    5c91:	83 c5 02             	add    $0x2,%ebp
    result += (p1.coord[i] - p2.coord[i])*(p1.coord[i] - p2.coord[i]);
    5c94:	f3 45 0f 10 34 89    	movss  (%r9,%rcx,4),%xmm14
    5c9a:	f3 45 0f 5c 34 8a    	subss  (%r10,%rcx,4),%xmm14
    5ca0:	f3 45 0f 59 f6       	mulss  %xmm14,%xmm14
    5ca5:	f3 45 0f 58 d6       	addss  %xmm14,%xmm10
  for (i=0;i<dim;i++)
    5caa:	41 39 e8             	cmp    %ebp,%r8d
    5cad:	7e 18                	jle    5cc7 <_Z5pgainlP6PointsdPliP16parsec_barrier_t+0x1627>
    result += (p1.coord[i] - p2.coord[i])*(p1.coord[i] - p2.coord[i]);
    5caf:	48 63 ed             	movslq %ebp,%rbp
    5cb2:	f3 41 0f 10 34 a9    	movss  (%r9,%rbp,4),%xmm6
    5cb8:	f3 41 0f 5c 34 aa    	subss  (%r10,%rbp,4),%xmm6
    5cbe:	f3 0f 59 f6          	mulss  %xmm6,%xmm6
    5cc2:	f3 44 0f 58 d6       	addss  %xmm6,%xmm10
	points->p[i].cost = points->p[i].weight *
    5cc7:	f3 44 0f 59 d2       	mulss  %xmm2,%xmm10
	points->p[i].assign = x;
    5ccc:	4c 8b 7c 24 48       	mov    0x48(%rsp),%r15
    5cd1:	48 83 c7 01          	add    $0x1,%rdi
    5cd5:	0f 18 48 18          	prefetcht0 0x18(%rax)
    5cd9:	48 83 c0 20          	add    $0x20,%rax
    5cdd:	4c 89 78 b0          	mov    %r15,-0x50(%rax)
	points->p[i].cost = points->p[i].weight *
    5ce1:	f3 44 0f 11 50 b8    	movss  %xmm10,-0x48(%rax)
    for ( int i = k1; i < k2; i++ ) {
    5ce7:	4c 39 e7             	cmp    %r12,%rdi
    5cea:	0f 85 97 fb ff ff    	jne    5887 <_Z5pgainlP6PointsdPliP16parsec_barrier_t+0x11e7>
    5cf0:	4c 8b 7c 24 20       	mov    0x20(%rsp),%r15
    5cf5:	4c 8b 6c 24 28       	mov    0x28(%rsp),%r13
      if( is_center[i] && gl_lower[center_table[i]] > 0 ) {
    5cfa:	4c 8b 05 17 94 00 00 	mov    0x9417(%rip),%r8        # f118 <_ZL9is_center>
    5d01:	4c 89 fe             	mov    %r15,%rsi
    5d04:	48 2b 74 24 08       	sub    0x8(%rsp),%rsi
    5d09:	83 e6 07             	and    $0x7,%esi
    5d0c:	0f 84 1c 01 00 00    	je     5e2e <_Z5pgainlP6PointsdPliP16parsec_barrier_t+0x178e>
    5d12:	48 83 fe 01          	cmp    $0x1,%rsi
    5d16:	0f 84 fa 00 00 00    	je     5e16 <_Z5pgainlP6PointsdPliP16parsec_barrier_t+0x1776>
    5d1c:	48 83 fe 02          	cmp    $0x2,%rsi
    5d20:	0f 84 ca 00 00 00    	je     5df0 <_Z5pgainlP6PointsdPliP16parsec_barrier_t+0x1750>
    5d26:	48 83 fe 03          	cmp    $0x3,%rsi
    5d2a:	0f 84 9b 00 00 00    	je     5dcb <_Z5pgainlP6PointsdPliP16parsec_barrier_t+0x172b>
    5d30:	48 83 fe 04          	cmp    $0x4,%rsi
    5d34:	74 70                	je     5da6 <_Z5pgainlP6PointsdPliP16parsec_barrier_t+0x1706>
    5d36:	48 83 fe 05          	cmp    $0x5,%rsi
    5d3a:	74 44                	je     5d80 <_Z5pgainlP6PointsdPliP16parsec_barrier_t+0x16e0>
    5d3c:	48 83 fe 06          	cmp    $0x6,%rsi
    5d40:	74 2f                	je     5d71 <_Z5pgainlP6PointsdPliP16parsec_barrier_t+0x16d1>
    5d42:	48 8b 5c 24 08       	mov    0x8(%rsp),%rbx
    5d47:	41 80 3c 18 00       	cmpb   $0x0,(%r8,%rbx,1)
    5d4c:	74 1a                	je     5d68 <_Z5pgainlP6PointsdPliP16parsec_barrier_t+0x16c8>
    5d4e:	49 63 04 9e          	movslq (%r14,%rbx,4),%rax
    5d52:	48 8b 7c 24 60       	mov    0x60(%rsp),%rdi
    5d57:	f2 0f 10 14 c7       	movsd  (%rdi,%rax,8),%xmm2
    5d5c:	66 41 0f 2f d0       	comisd %xmm8,%xmm2
    5d61:	76 05                	jbe    5d68 <_Z5pgainlP6PointsdPliP16parsec_barrier_t+0x16c8>
	is_center[i] = false;
    5d63:	41 c6 04 18 00       	movb   $0x0,(%r8,%rbx,1)
    for( int i = k1; i < k2; i++ ) {
    5d68:	4c 8b 6c 24 08       	mov    0x8(%rsp),%r13
    5d6d:	49 83 c5 01          	add    $0x1,%r13
      if( is_center[i] && gl_lower[center_table[i]] > 0 ) {
    5d71:	43 80 3c 28 00       	cmpb   $0x0,(%r8,%r13,1)
    5d76:	0f 85 d7 03 00 00    	jne    6153 <_Z5pgainlP6PointsdPliP16parsec_barrier_t+0x1ab3>
    for( int i = k1; i < k2; i++ ) {
    5d7c:	49 83 c5 01          	add    $0x1,%r13
      if( is_center[i] && gl_lower[center_table[i]] > 0 ) {
    5d80:	43 80 3c 28 00       	cmpb   $0x0,(%r8,%r13,1)
    5d85:	74 1b                	je     5da2 <_Z5pgainlP6PointsdPliP16parsec_barrier_t+0x1702>
    5d87:	4f 63 24 ae          	movslq (%r14,%r13,4),%r12
    5d8b:	4c 8b 5c 24 60       	mov    0x60(%rsp),%r11
    5d90:	f2 47 0f 10 14 e3    	movsd  (%r11,%r12,8),%xmm10
    5d96:	66 45 0f 2f d0       	comisd %xmm8,%xmm10
    5d9b:	76 05                	jbe    5da2 <_Z5pgainlP6PointsdPliP16parsec_barrier_t+0x1702>
	is_center[i] = false;
    5d9d:	43 c6 04 28 00       	movb   $0x0,(%r8,%r13,1)
    for( int i = k1; i < k2; i++ ) {
    5da2:	49 83 c5 01          	add    $0x1,%r13
      if( is_center[i] && gl_lower[center_table[i]] > 0 ) {
    5da6:	43 80 3c 28 00       	cmpb   $0x0,(%r8,%r13,1)
    5dab:	74 1a                	je     5dc7 <_Z5pgainlP6PointsdPliP16parsec_barrier_t+0x1727>
    5dad:	4b 63 14 ae          	movslq (%r14,%r13,4),%rdx
    5db1:	48 8b 4c 24 60       	mov    0x60(%rsp),%rcx
    5db6:	f2 0f 10 24 d1       	movsd  (%rcx,%rdx,8),%xmm4
    5dbb:	66 41 0f 2f e0       	comisd %xmm8,%xmm4
    5dc0:	76 05                	jbe    5dc7 <_Z5pgainlP6PointsdPliP16parsec_barrier_t+0x1727>
	is_center[i] = false;
    5dc2:	43 c6 04 28 00       	movb   $0x0,(%r8,%r13,1)
    for( int i = k1; i < k2; i++ ) {
    5dc7:	49 83 c5 01          	add    $0x1,%r13
      if( is_center[i] && gl_lower[center_table[i]] > 0 ) {
    5dcb:	43 80 3c 28 00       	cmpb   $0x0,(%r8,%r13,1)
    5dd0:	74 1a                	je     5dec <_Z5pgainlP6PointsdPliP16parsec_barrier_t+0x174c>
    5dd2:	4b 63 2c ae          	movslq (%r14,%r13,4),%rbp
    5dd6:	48 8b 74 24 60       	mov    0x60(%rsp),%rsi
    5ddb:	f2 0f 10 1c ee       	movsd  (%rsi,%rbp,8),%xmm3
    5de0:	66 41 0f 2f d8       	comisd %xmm8,%xmm3
    5de5:	76 05                	jbe    5dec <_Z5pgainlP6PointsdPliP16parsec_barrier_t+0x174c>
	is_center[i] = false;
    5de7:	43 c6 04 28 00       	movb   $0x0,(%r8,%r13,1)
    for( int i = k1; i < k2; i++ ) {
    5dec:	49 83 c5 01          	add    $0x1,%r13
      if( is_center[i] && gl_lower[center_table[i]] > 0 ) {
    5df0:	43 80 3c 28 00       	cmpb   $0x0,(%r8,%r13,1)
    5df5:	74 1b                	je     5e12 <_Z5pgainlP6PointsdPliP16parsec_barrier_t+0x1772>
    5df7:	4b 63 04 ae          	movslq (%r14,%r13,4),%rax
    5dfb:	48 8b 5c 24 60       	mov    0x60(%rsp),%rbx
    5e00:	f2 44 0f 10 0c c3    	movsd  (%rbx,%rax,8),%xmm9
    5e06:	66 45 0f 2f c8       	comisd %xmm8,%xmm9
    5e0b:	76 05                	jbe    5e12 <_Z5pgainlP6PointsdPliP16parsec_barrier_t+0x1772>
	is_center[i] = false;
    5e0d:	43 c6 04 28 00       	movb   $0x0,(%r8,%r13,1)
    for( int i = k1; i < k2; i++ ) {
    5e12:	49 83 c5 01          	add    $0x1,%r13
      if( is_center[i] && gl_lower[center_table[i]] > 0 ) {
    5e16:	43 80 3c 28 00       	cmpb   $0x0,(%r8,%r13,1)
    5e1b:	0f 85 36 02 00 00    	jne    6057 <_Z5pgainlP6PointsdPliP16parsec_barrier_t+0x19b7>
    for( int i = k1; i < k2; i++ ) {
    5e21:	49 83 c5 01          	add    $0x1,%r13
    5e25:	4d 39 fd             	cmp    %r15,%r13
    5e28:	0f 84 23 01 00 00    	je     5f51 <_Z5pgainlP6PointsdPliP16parsec_barrier_t+0x18b1>
    5e2e:	4c 8b 54 24 60       	mov    0x60(%rsp),%r10
      if( is_center[i] && gl_lower[center_table[i]] > 0 ) {
    5e33:	43 80 3c 28 00       	cmpb   $0x0,(%r8,%r13,1)
    5e38:	74 16                	je     5e50 <_Z5pgainlP6PointsdPliP16parsec_barrier_t+0x17b0>
    5e3a:	4f 63 24 ae          	movslq (%r14,%r13,4),%r12
    5e3e:	f2 43 0f 10 0c e2    	movsd  (%r10,%r12,8),%xmm1
    5e44:	66 41 0f 2f c8       	comisd %xmm8,%xmm1
    5e49:	76 05                	jbe    5e50 <_Z5pgainlP6PointsdPliP16parsec_barrier_t+0x17b0>
	is_center[i] = false;
    5e4b:	43 c6 04 28 00       	movb   $0x0,(%r8,%r13,1)
      if( is_center[i] && gl_lower[center_table[i]] > 0 ) {
    5e50:	43 80 7c 28 01 00    	cmpb   $0x0,0x1(%r8,%r13,1)
    5e56:	4d 8d 5d 01          	lea    0x1(%r13),%r11
    5e5a:	74 16                	je     5e72 <_Z5pgainlP6PointsdPliP16parsec_barrier_t+0x17d2>
    5e5c:	4f 63 2c 9e          	movslq (%r14,%r11,4),%r13
    5e60:	f2 43 0f 10 2c ea    	movsd  (%r10,%r13,8),%xmm5
    5e66:	66 41 0f 2f e8       	comisd %xmm8,%xmm5
    5e6b:	76 05                	jbe    5e72 <_Z5pgainlP6PointsdPliP16parsec_barrier_t+0x17d2>
	is_center[i] = false;
    5e6d:	43 c6 04 18 00       	movb   $0x0,(%r8,%r11,1)
      if( is_center[i] && gl_lower[center_table[i]] > 0 ) {
    5e72:	43 80 7c 18 01 00    	cmpb   $0x0,0x1(%r8,%r11,1)
    5e78:	49 8d 53 01          	lea    0x1(%r11),%rdx
    5e7c:	74 17                	je     5e95 <_Z5pgainlP6PointsdPliP16parsec_barrier_t+0x17f5>
    5e7e:	49 63 0c 96          	movslq (%r14,%rdx,4),%rcx
    5e82:	f2 41 0f 10 3c ca    	movsd  (%r10,%rcx,8),%xmm7
    5e88:	66 41 0f 2f f8       	comisd %xmm8,%xmm7
    5e8d:	76 06                	jbe    5e95 <_Z5pgainlP6PointsdPliP16parsec_barrier_t+0x17f5>
	is_center[i] = false;
    5e8f:	43 c6 44 18 01 00    	movb   $0x0,0x1(%r8,%r11,1)
      if( is_center[i] && gl_lower[center_table[i]] > 0 ) {
    5e95:	43 80 7c 18 02 00    	cmpb   $0x0,0x2(%r8,%r11,1)
    5e9b:	49 8d 6b 02          	lea    0x2(%r11),%rbp
    5e9f:	74 17                	je     5eb8 <_Z5pgainlP6PointsdPliP16parsec_barrier_t+0x1818>
    5ea1:	49 63 34 ae          	movslq (%r14,%rbp,4),%rsi
    5ea5:	f2 45 0f 10 24 f2    	movsd  (%r10,%rsi,8),%xmm12
    5eab:	66 45 0f 2f e0       	comisd %xmm8,%xmm12
    5eb0:	76 06                	jbe    5eb8 <_Z5pgainlP6PointsdPliP16parsec_barrier_t+0x1818>
	is_center[i] = false;
    5eb2:	43 c6 44 18 02 00    	movb   $0x0,0x2(%r8,%r11,1)
      if( is_center[i] && gl_lower[center_table[i]] > 0 ) {
    5eb8:	43 80 7c 18 03 00    	cmpb   $0x0,0x3(%r8,%r11,1)
    5ebe:	49 8d 43 03          	lea    0x3(%r11),%rax
    5ec2:	74 17                	je     5edb <_Z5pgainlP6PointsdPliP16parsec_barrier_t+0x183b>
    5ec4:	49 63 1c 86          	movslq (%r14,%rax,4),%rbx
    5ec8:	f2 41 0f 10 04 da    	movsd  (%r10,%rbx,8),%xmm0
    5ece:	66 41 0f 2f c0       	comisd %xmm8,%xmm0
    5ed3:	76 06                	jbe    5edb <_Z5pgainlP6PointsdPliP16parsec_barrier_t+0x183b>
	is_center[i] = false;
    5ed5:	43 c6 44 18 03 00    	movb   $0x0,0x3(%r8,%r11,1)
      if( is_center[i] && gl_lower[center_table[i]] > 0 ) {
    5edb:	43 80 7c 18 04 00    	cmpb   $0x0,0x4(%r8,%r11,1)
    5ee1:	49 8d 7b 04          	lea    0x4(%r11),%rdi
    5ee5:	74 17                	je     5efe <_Z5pgainlP6PointsdPliP16parsec_barrier_t+0x185e>
    5ee7:	4d 63 0c be          	movslq (%r14,%rdi,4),%r9
    5eeb:	f2 47 0f 10 2c ca    	movsd  (%r10,%r9,8),%xmm13
    5ef1:	66 45 0f 2f e8       	comisd %xmm8,%xmm13
